ccopy_reg
_reconstructor
p1
(ccollection.treemap.TreeMap
TreeMap
p2
c__builtin__
object
p3
NtRp4
(dp5
S'result'
p6
ccollections
OrderedDict
p7
((lp8
(lp9
S'CCCCCCCCD'
p10
aS'CCCCCCCCD'
p11
aa(lp12
S'CCCCCCCD'
p13
aS'CCCCCCCD'
p14
aa(lp15
S'CCCCCCD'
p16
aS'CCCCCCD'
p17
aa(lp18
S'CCCCCCGD'
p19
aS'CCCCCCGD'
p20
aa(lp21
S'CCCCCCICCCCD'
p22
aS'CCCCCCICCCCD'
p23
aa(lp24
S'CCCCCCPD'
p25
aS'CCCCCCPD'
p26
aa(lp27
S'CCCCCD'
p28
aS'CCCCCD'
p29
aa(lp30
S'CCCCCDD'
p31
aS'CCCCCDD'
p32
aa(lp33
S'CCCCCGCCD'
p34
aS'CCCCCGCCD'
p35
aa(lp36
S'CCCCCICCCCCD'
p37
aS'CCCCCICCCCCD'
p38
aa(lp39
S'CCCCCPCCD'
p40
aS'CCCCCPCCD'
p41
aa(lp42
S'CCCCCWDWD'
p43
aS'CCCCCWDWD'
p44
aa(lp45
S'CCCCD'
p46
aS'CCCCD'
p47
aa(lp48
S'CCCCDCCD'
p49
aS'CCCCDCCD'
p50
aa(lp51
S'CCCCDCD'
p52
aS'CCCCDCD'
p53
aa(lp54
S'CCCCDD'
p55
aS'CCCCDD'
p56
aa(lp57
S'CCCCDID'
p58
aS'CCCCDID'
p59
aa(lp60
S'CCCCID'
p61
aS'CCCCID'
p62
aa(lp63
S'CCCCPCD'
p64
aS'CCCCPCD'
p65
aa(lp66
S'CCCD'
p67
aS'CCCD'
p68
aa(lp69
S'CCCDCCCD'
p70
aS'CCCDCCCD'
p71
aa(lp72
S'CCCDCCD'
p73
aS'CCCDCCD'
p74
aa(lp75
S'CCCDCD'
p76
aS'CCCDCD'
p77
aa(lp78
S'CCCDD'
p79
aS'CCCDD'
p80
aa(lp81
S'CCCDFGD'
p82
aS'CCCDFGD'
p83
aa(lp84
S'CCCDGCD'
p85
aS'CCCDGCD'
p86
aa(lp87
S'CCCDGDD'
p88
aS'CCCDGDD'
p89
aa(lp90
S'CCCDICFPD'
p91
aS'CCCDICFPD'
p92
aa(lp93
S'CCCDWD'
p94
aS'CCCDWD'
p95
aa(lp96
S'CCCFCFFCD'
p97
aS'CCCFCFFCD'
p98
aa(lp99
S'CCCGCCD'
p100
aS'CCCGCCD'
p101
aa(lp102
S'CCCGCD'
p103
aS'CCCGCD'
p104
aa(lp105
S'CCCGD'
p106
aS'CCCGD'
p107
aa(lp108
S'CCCGID'
p109
aS'CCCGID'
p110
aa(lp111
S'CCCGJCD'
p112
aS'CCCGJCD'
p113
aa(lp114
S'CCCID'
p115
aS'CCCID'
p116
aa(lp117
S'CCCJCCD'
p118
aS'CCCJCCD'
p119
aa(lp120
S'CCCJD'
p121
aS'CCCJD'
p122
aa(lp123
S'CCCLGCD'
p124
aS'CCCLGCD'
p125
aa(lp126
S'CCCMD'
p127
aS'CCCMD'
p128
aa(lp129
S'CCCPCCCD'
p130
aS'CCCPCCCD'
p131
aa(lp132
S'CCCPCCD'
p133
aS'CCCPCCD'
p134
aa(lp135
S'CCCPCD'
p136
aS'CCCPCD'
p137
aa(lp138
S'CCCPD'
p139
aS'CCCPD'
p140
aa(lp141
S'CCCWCWD'
p142
aS'CCCWCWD'
p143
aa(lp144
S'CCCWGWCCD'
p145
aS'CCCWGWCCD'
p146
aa(lp147
S'CCCWGWCCDWD'
p148
aS'CCCWGWCCDWD'
p149
aa(lp150
S'CCCWGWD'
p151
aS'CCCWGWD'
p152
aa(lp153
S'CCD'
p154
aS'CCD'
p155
aa(lp156
S'CCDCCCCCCD'
p157
aS'CCDCCCCCCD'
p158
aa(lp159
S'CCDCCCCD'
p160
aS'CCDCCCCD'
p161
aa(lp162
S'CCDCCCD'
p163
aS'CCDCCCD'
p164
aa(lp165
S'CCDCCCDD'
p166
aS'CCDCCCDD'
p167
aa(lp168
S'CCDCCD'
p169
aS'CCDCCD'
p170
aa(lp171
S'CCDCD'
p172
aS'CCDCD'
p173
aa(lp174
S'CCDCDD'
p175
aS'CCDCDD'
p176
aa(lp177
S'CCDCGCD'
p178
aS'CCDCGCD'
p179
aa(lp180
S'CCDCGCDID'
p181
aS'CCDCGCDID'
p182
aa(lp183
S'CCDCGCDPD'
p184
aS'CCDCGCDPD'
p185
aa(lp186
S'CCDCGGDD'
p187
aS'CCDCGGDD'
p188
aa(lp189
S'CCDCID'
p190
aS'CCDCID'
p191
aa(lp192
S'CCDCJCCD'
p193
aS'CCDCJCCD'
p194
aa(lp195
S'CCDCJCCDD'
p196
aS'CCDCJCCDD'
p197
aa(lp198
S'CCDD'
p199
aS'CCDD'
p200
aa(lp201
S'CCDDD'
p202
aS'CCDDD'
p203
aa(lp204
S'CCDDGCD'
p205
aS'CCDDGCD'
p206
aa(lp207
S'CCDFIDGD'
p208
aS'CCDFIDGD'
p209
aa(lp210
S'CCDGCCD'
p211
aS'CCDGCCD'
p212
aa(lp213
S'CCDICD'
p214
aS'CCDICD'
p215
aa(lp216
S'CCDID'
p217
aS'CCDID'
p218
aa(lp219
S'CCDJCD'
p220
aS'CCDJCD'
p221
aa(lp222
S'CCDPCCD'
p223
aS'CCDPCCD'
p224
aa(lp225
S'CCDPCD'
p226
aS'CCDPCD'
p227
aa(lp228
S'CCDPJD'
p229
aS'CCDPJD'
p230
aa(lp231
S'CCDWD'
p232
aS'CCDWD'
p233
aa(lp234
S'CCFCCD'
p235
aS'CCFCCD'
p236
aa(lp237
S'CCFD'
p238
aS'CCFD'
p239
aa(lp240
S'CCFGCCCCCD'
p241
aS'CCFGCCCCCD'
p242
aa(lp243
S'CCFGFCCCD'
p244
aS'CCFGFCCCD'
p245
aa(lp246
S'CCFPCD'
p247
aS'CCFPCD'
p248
aa(lp249
S'CCGCCCD'
p250
aS'CCGCCCD'
p251
aa(lp252
S'CCGCCD'
p253
aS'CCGCCD'
p254
aa(lp255
S'CCGCD'
p256
aS'CCGCD'
p257
aa(lp258
S'CCGCDCD'
p259
aS'CCGCDCD'
p260
aa(lp261
S'CCGCDCMD'
p262
aS'CCGCDCMD'
p263
aa(lp264
S'CCGD'
p265
aS'CCGD'
p266
aa(lp267
S'CCGDD'
p268
aS'CCGDD'
p269
aa(lp270
S'CCGGCCD'
p271
aS'CCGGCCD'
p272
aa(lp273
S'CCGGCD'
p274
aS'CCGGCD'
p275
aa(lp276
S'CCGID'
p277
aS'CCGID'
p278
aa(lp279
S'CCGIDD'
p280
aS'CCGIDD'
p281
aa(lp282
S'CCGJD'
p283
aS'CCGJD'
p284
aa(lp285
S'CCGWGWD'
p286
aS'CCGWGWD'
p287
aa(lp288
S'CCICCD'
p289
aS'CCICCD'
p290
aa(lp291
S'CCICD'
p292
aS'CCICD'
p293
aa(lp294
S'CCICIFD'
p295
aS'CCICIFD'
p296
aa(lp297
S'CCICJPD'
p298
aS'CCICJPD'
p299
aa(lp300
S'CCID'
p301
aS'CCID'
p302
aa(lp303
S'CCIDCD'
p304
aS'CCIDCD'
p305
aa(lp306
S'CCIDD'
p307
aS'CCIDD'
p308
aa(lp309
S'CCIDGD'
p310
aS'CCIDGD'
p311
aa(lp312
S'CCIID'
p313
aS'CCIID'
p314
aa(lp315
S'CCJCCCD'
p316
aS'CCJCCCD'
p317
aa(lp318
S'CCJCCD'
p319
aS'CCJCCD'
p320
aa(lp321
S'CCJCD'
p322
aS'CCJCD'
p323
aa(lp324
S'CCJCFD'
p325
aS'CCJCFD'
p326
aa(lp327
S'CCJD'
p328
aS'CCJD'
p329
aa(lp330
S'CCJID'
p331
aS'CCJID'
p332
aa(lp333
S'CCJJMJD'
p334
aS'CCJJMJD'
p335
aa(lp336
S'CCKD'
p337
aS'CCKD'
p338
aa(lp339
S'CCKID'
p340
aS'CCKID'
p341
aa(lp342
S'CCLD'
p343
aS'CCLD'
p344
aa(lp345
S'CCMD'
p346
aS'CCMD'
p347
aa(lp348
S'CCMIDGCD'
p349
aS'CCMIDGCD'
p350
aa(lp351
S'CCMMPDCD'
p352
aS'CCMMPDCD'
p353
aa(lp354
S'CCPCCD'
p355
aS'CCPCCD'
p356
aa(lp357
S'CCPCD'
p358
aS'CCPCD'
p359
aa(lp360
S'CCPD'
p361
aS'CCPD'
p362
aa(lp363
S'CCPDCD'
p364
aS'CCPDCD'
p365
aa(lp366
S'CCPPD'
p367
aS'CCPPD'
p368
aa(lp369
S'CCWCWD'
p370
aS'CCWCWD'
p371
aa(lp372
S'CCWD'
p373
aS'CCWD'
p374
aa(lp375
S'CCWGWCCCD'
p376
aS'CCWGWCCCD'
p377
aa(lp378
S'CCWGWCCD'
p379
aS'CCWGWCCD'
p380
aa(lp381
S'CCWGWCD'
p382
aS'CCWGWCD'
p383
aa(lp384
S'CCWGWD'
p385
aS'CCWGWD'
p386
aa(lp387
S'CCWGWDD'
p388
aS'CCWGWDD'
p389
aa(lp390
S'CD'
p391
aS'CD'
p392
aa(lp393
S'CDCCCCCCD'
p394
aS'CDCCCCCCD'
p395
aa(lp396
S'CDCCCCD'
p397
aS'CDCCCCD'
p398
aa(lp399
S'CDCCCD'
p400
aS'CDCCCD'
p401
aa(lp402
S'CDCCD'
p403
aS'CDCCD'
p404
aa(lp405
S'CDCCDD'
p406
aS'CDCCDD'
p407
aa(lp408
S'CDCCJD'
p409
aS'CDCCJD'
p410
aa(lp411
S'CDCD'
p412
aS'CDCD'
p413
aa(lp414
S'CDCDD'
p415
aS'CDCDD'
p416
aa(lp417
S'CDCGD'
p418
aS'CDCGD'
p419
aa(lp420
S'CDCGPCCD'
p421
aS'CDCGPCCD'
p422
aa(lp423
S'CDCJD'
p424
aS'CDCJD'
p425
aa(lp426
S'CDCLD'
p427
aS'CDCLD'
p428
aa(lp429
S'CDCWIWD'
p430
aS'CDCWIWD'
p431
aa(lp432
S'CDD'
p433
aS'CDD'
p434
aa(lp435
S'CDDCCD'
p436
aS'CDDCCD'
p437
aa(lp438
S'CDDCCDD'
p439
aS'CDDCCDD'
p440
aa(lp441
S'CDDCD'
p442
aS'CDDCD'
p443
aa(lp444
S'CDDD'
p445
aS'CDDD'
p446
aa(lp447
S'CDFD'
p448
aS'CDFD'
p449
aa(lp450
S'CDFPCCD'
p451
aS'CDFPCCD'
p452
aa(lp453
S'CDGCD'
p454
aS'CDGCD'
p455
aa(lp456
S'CDGCICD'
p457
aS'CDGCICD'
p458
aa(lp459
S'CDGD'
p460
aS'CDGD'
p461
aa(lp462
S'CDICD'
p463
aS'CDICD'
p464
aa(lp465
S'CDID'
p466
aS'CDID'
p467
aa(lp468
S'CDILLCCD'
p469
aS'CDILLCCD'
p470
aa(lp471
S'CDJCCD'
p472
aS'CDJCCD'
p473
aa(lp474
S'CDJCD'
p475
aS'CDJCD'
p476
aa(lp477
S'CDJD'
p478
aS'CDJD'
p479
aa(lp480
S'CDJLD'
p481
aS'CDJLD'
p482
aa(lp483
S'CDLGCD'
p484
aS'CDLGCD'
p485
aa(lp486
S'CDLJD'
p487
aS'CDLJD'
p488
aa(lp489
S'CDMCD'
p490
aS'CDMCD'
p491
aa(lp492
S'CDPCCCCD'
p493
aS'CDPCCCCD'
p494
aa(lp495
S'CDPCCD'
p496
aS'CDPCCD'
p497
aa(lp498
S'CDPD'
p499
aS'CDPD'
p500
aa(lp501
S'CDPPD'
p502
aS'CDPPD'
p503
aa(lp504
S'CDWGWDGD'
p505
aS'CDWGWDGD'
p506
aa(lp507
S'CFCCD'
p508
aS'CFCCD'
p509
aa(lp510
S'CFCCGWD'
p511
aS'CFCCGWD'
p512
aa(lp513
S'CFCD'
p514
aS'CFCD'
p515
aa(lp516
S'CFCPD'
p517
aS'CFCPD'
p518
aa(lp519
S'CFCWGWD'
p520
aS'CFCWGWD'
p521
aa(lp522
S'CFD'
p523
aS'CFD'
p524
aa(lp525
S'CFGFGFGFGJID'
p526
aS'CFGFGFGFGJID'
p527
aa(lp528
S'CFJD'
p529
aS'CFJD'
p530
aa(lp531
S'CFPD'
p532
aS'CFPD'
p533
aa(lp534
S'CFWGWCCDGCD'
p535
aS'CFWGWCCDGCD'
p536
aa(lp537
S'CFWGWCJCD'
p538
aS'CFWGWCJCD'
p539
aa(lp540
S'CGCCCCD'
p541
aS'CGCCCCD'
p542
aa(lp543
S'CGCCCD'
p544
aS'CGCCCD'
p545
aa(lp546
S'CGCCD'
p547
aS'CGCCD'
p548
aa(lp549
S'CGCCID'
p550
aS'CGCCID'
p551
aa(lp552
S'CGCCJCCCD'
p553
aS'CGCCJCCCD'
p554
aa(lp555
S'CGCD'
p556
aS'CGCD'
p557
aa(lp558
S'CGCDCCD'
p559
aS'CGCDCCD'
p560
aa(lp561
S'CGCDCD'
p562
aS'CGCDCD'
p563
aa(lp564
S'CGCDD'
p565
aS'CGCDD'
p566
aa(lp567
S'CGCFCCD'
p568
aS'CGCFCCD'
p569
aa(lp570
S'CGCGCD'
p571
aS'CGCGCD'
p572
aa(lp573
S'CGCID'
p574
aS'CGCID'
p575
aa(lp576
S'CGD'
p577
aS'CGD'
p578
aa(lp579
S'CGDCD'
p580
aS'CGDCD'
p581
aa(lp582
S'CGDD'
p583
aS'CGDD'
p584
aa(lp585
S'CGDDCCD'
p586
aS'CGDDCCD'
p587
aa(lp588
S'CGDDD'
p589
aS'CGDDD'
p590
aa(lp591
S'CGDDID'
p592
aS'CGDDID'
p593
aa(lp594
S'CGDJD'
p595
aS'CGDJD'
p596
aa(lp597
S'CGDMD'
p598
aS'CGDMD'
p599
aa(lp600
S'CGFCCD'
p601
aS'CGFCCD'
p602
aa(lp603
S'CGFCD'
p604
aS'CGFCD'
p605
aa(lp606
S'CGFD'
p607
aS'CGFD'
p608
aa(lp609
S'CGFDID'
p610
aS'CGFDID'
p611
aa(lp612
S'CGGCCCD'
p613
aS'CGGCCCD'
p614
aa(lp615
S'CGGCCD'
p616
aS'CGGCCD'
p617
aa(lp618
S'CGGCD'
p619
aS'CGGCD'
p620
aa(lp621
S'CGGCICD'
p622
aS'CGGCICD'
p623
aa(lp624
S'CGGD'
p625
aS'CGGD'
p626
aa(lp627
S'CGGGD'
p628
aS'CGGGD'
p629
aa(lp630
S'CGGGDD'
p631
aS'CGGGDD'
p632
aa(lp633
S'CGGICD'
p634
aS'CGGICD'
p635
aa(lp636
S'CGGJD'
p637
aS'CGGJD'
p638
aa(lp639
S'CGGJPD'
p640
aS'CGGJPD'
p641
aa(lp642
S'CGICD'
p643
aS'CGICD'
p644
aa(lp645
S'CGICDGCD'
p646
aS'CGICDGCD'
p647
aa(lp648
S'CGICDID'
p649
aS'CGICDID'
p650
aa(lp651
S'CGID'
p652
aS'CGID'
p653
aa(lp654
S'CGIID'
p655
aS'CGIID'
p656
aa(lp657
S'CGIJD'
p658
aS'CGIJD'
p659
aa(lp660
S'CGJCCCD'
p661
aS'CGJCCCD'
p662
aa(lp663
S'CGJCCD'
p664
aS'CGJCCD'
p665
aa(lp666
S'CGJCD'
p667
aS'CGJCD'
p668
aa(lp669
S'CGJCDGD'
p670
aS'CGJCDGD'
p671
aa(lp672
S'CGJCDWD'
p673
aS'CGJCDWD'
p674
aa(lp675
S'CGJCJCD'
p676
aS'CGJCJCD'
p677
aa(lp678
S'CGJD'
p679
aS'CGJD'
p680
aa(lp681
S'CGJDD'
p682
aS'CGJDD'
p683
aa(lp684
S'CGJDDCCD'
p685
aS'CGJDDCCD'
p686
aa(lp687
S'CGJGCD'
p688
aS'CGJGCD'
p689
aa(lp690
S'CGJID'
p691
aS'CGJID'
p692
aa(lp693
S'CGLCCD'
p694
aS'CGLCCD'
p695
aa(lp696
S'CGMD'
p697
aS'CGMD'
p698
aa(lp699
S'CGPCCD'
p700
aS'CGPCCD'
p701
aa(lp702
S'CGPCD'
p703
aS'CGPCD'
p704
aa(lp705
S'CGPD'
p706
aS'CGPD'
p707
aa(lp708
S'CGPFCCD'
p709
aS'CGPFCCD'
p710
aa(lp711
S'CGPICD'
p712
aS'CGPICD'
p713
aa(lp714
S'CGPID'
p715
aS'CGPID'
p716
aa(lp717
S'CGPJCDD'
p718
aS'CGPJCDD'
p719
aa(lp720
S'CGPJD'
p721
aS'CGPJD'
p722
aa(lp723
S'CGPJJJCD'
p724
aS'CGPJJJCD'
p725
aa(lp726
S'CICCCCD'
p727
aS'CICCCCD'
p728
aa(lp729
S'CICCD'
p730
aS'CICCD'
p731
aa(lp732
S'CICCDGD'
p733
aS'CICCDGD'
p734
aa(lp735
S'CICD'
p736
aS'CICD'
p737
aa(lp738
S'CICDCD'
p739
aS'CICDCD'
p740
aa(lp741
S'CICDD'
p742
aS'CICDD'
p743
aa(lp744
S'CICFJGD'
p745
aS'CICFJGD'
p746
aa(lp747
S'CICGFID'
p748
aS'CICGFID'
p749
aa(lp750
S'CICWGWD'
p751
aS'CICWGWD'
p752
aa(lp753
S'CID'
p754
aS'CID'
p755
aa(lp756
S'CIDCD'
p757
aS'CIDCD'
p758
aa(lp759
S'CIDD'
p760
aS'CIDD'
p761
aa(lp762
S'CIDGD'
p763
aS'CIDGD'
p764
aa(lp765
S'CIFID'
p766
aS'CIFID'
p767
aa(lp768
S'CIGCCD'
p769
aS'CIGCCD'
p770
aa(lp771
S'CIGCD'
p772
aS'CIGCD'
p773
aa(lp774
S'CIGD'
p775
aS'CIGD'
p776
aa(lp777
S'CIGMCD'
p778
aS'CIGMCD'
p779
aa(lp780
S'CIICCD'
p781
aS'CIICCD'
p782
aa(lp783
S'CIICD'
p784
aS'CIICD'
p785
aa(lp786
S'CIID'
p787
aS'CIID'
p788
aa(lp789
S'CIJCWGWCD'
p790
aS'CIJCWGWCD'
p791
aa(lp792
S'CIJD'
p793
aS'CIJD'
p794
aa(lp795
S'CIJWD'
p796
aS'CIJWD'
p797
aa(lp798
S'CILCD'
p799
aS'CILCD'
p800
aa(lp801
S'CIMD'
p802
aS'CIMD'
p803
aa(lp804
S'CIPCCD'
p805
aS'CIPCCD'
p806
aa(lp807
S'CJCCCCCD'
p808
aS'CJCCCCCD'
p809
aa(lp810
S'CJCCCD'
p811
aS'CJCCCD'
p812
aa(lp813
S'CJCCCDD'
p814
aS'CJCCCDD'
p815
aa(lp816
S'CJCCD'
p817
aS'CJCCD'
p818
aa(lp819
S'CJCCDFD'
p820
aS'CJCCDFD'
p821
aa(lp822
S'CJCCMD'
p823
aS'CJCCMD'
p824
aa(lp825
S'CJCD'
p826
aS'CJCD'
p827
aa(lp828
S'CJCDD'
p829
aS'CJCDD'
p830
aa(lp831
S'CJCGCCD'
p832
aS'CJCGCCD'
p833
aa(lp834
S'CJCGD'
p835
aS'CJCGD'
p836
aa(lp837
S'CJCGPJD'
p838
aS'CJCGPJD'
p839
aa(lp840
S'CJCID'
p841
aS'CJCID'
p842
aa(lp843
S'CJCMD'
p844
aS'CJCMD'
p845
aa(lp846
S'CJCPCCCD'
p847
aS'CJCPCCCD'
p848
aa(lp849
S'CJCPD'
p850
aS'CJCPD'
p851
aa(lp852
S'CJCWCCCD'
p853
aS'CJCWCCCD'
p854
aa(lp855
S'CJCWGWD'
p856
aS'CJCWGWD'
p857
aa(lp858
S'CJD'
p859
aS'CJD'
p860
aa(lp861
S'CJDCCCCD'
p862
aS'CJDCCCCD'
p863
aa(lp864
S'CJDCCJD'
p865
aS'CJDCCJD'
p866
aa(lp867
S'CJDCD'
p868
aS'CJDCD'
p869
aa(lp870
S'CJDD'
p871
aS'CJDD'
p872
aa(lp873
S'CJDFD'
p874
aS'CJDFD'
p875
aa(lp876
S'CJDPD'
p877
aS'CJDPD'
p878
aa(lp879
S'CJFCD'
p880
aS'CJFCD'
p881
aa(lp882
S'CJFD'
p883
aS'CJFD'
p884
aa(lp885
S'CJGCCCD'
p886
aS'CJGCCCD'
p887
aa(lp888
S'CJGD'
p889
aS'CJGD'
p890
aa(lp891
S'CJGLD'
p892
aS'CJGLD'
p893
aa(lp894
S'CJGPCJD'
p895
aS'CJGPCJD'
p896
aa(lp897
S'CJICD'
p898
aS'CJICD'
p899
aa(lp900
S'CJID'
p901
aS'CJID'
p902
aa(lp903
S'CJIDD'
p904
aS'CJIDD'
p905
aa(lp906
S'CJJCCD'
p907
aS'CJJCCD'
p908
aa(lp909
S'CJJCD'
p910
aS'CJJCD'
p911
aa(lp912
S'CJJD'
p913
aS'CJJD'
p914
aa(lp915
S'CJJJD'
p916
aS'CJJJD'
p917
aa(lp918
S'CJJLD'
p919
aS'CJJLD'
p920
aa(lp921
S'CJKD'
p922
aS'CJKD'
p923
aa(lp924
S'CJLCCD'
p925
aS'CJLCCD'
p926
aa(lp927
S'CJMCD'
p928
aS'CJMCD'
p929
aa(lp930
S'CJMD'
p931
aS'CJMD'
p932
aa(lp933
S'CJPD'
p934
aS'CJPD'
p935
aa(lp936
S'CJWCCWCGJD'
p937
aS'CJWCCWCGJD'
p938
aa(lp939
S'CJWD'
p940
aS'CJWD'
p941
aa(lp942
S'CJWGCD'
p943
aS'CJWGCD'
p944
aa(lp945
S'CJWGWID'
p946
aS'CJWGWID'
p947
aa(lp948
S'CJWPMWCGD'
p949
aS'CJWPMWCGD'
p950
aa(lp951
S'CKCD'
p952
aS'CKCD'
p953
aa(lp954
S'CKD'
p955
aS'CKD'
p956
aa(lp957
S'CKJCDCD'
p958
aS'CKJCDCD'
p959
aa(lp960
S'CKJPD'
p961
aS'CKJPD'
p962
aa(lp963
S'CLCCCD'
p964
aS'CLCCCD'
p965
aa(lp966
S'CLCCD'
p967
aS'CLCCD'
p968
aa(lp969
S'CLCCGCD'
p970
aS'CLCCGCD'
p971
aa(lp972
S'CLCD'
p973
aS'CLCD'
p974
aa(lp975
S'CLD'
p976
aS'CLD'
p977
aa(lp978
S'CLDFD'
p979
aS'CLDFD'
p980
aa(lp981
S'CLID'
p982
aS'CLID'
p983
aa(lp984
S'CLPCD'
p985
aS'CLPCD'
p986
aa(lp987
S'CMCD'
p988
aS'CMCD'
p989
aa(lp990
S'CMCDD'
p991
aS'CMCDD'
p992
aa(lp993
S'CMCGD'
p994
aS'CMCGD'
p995
aa(lp996
S'CMD'
p997
aS'CMD'
p998
aa(lp999
S'CMDCD'
p1000
aS'CMDCD'
p1001
aa(lp1002
S'CMDD'
p1003
aS'CMDD'
p1004
aa(lp1005
S'CMMD'
p1006
aS'CMMD'
p1007
aa(lp1008
S'CMMDCCD'
p1009
aS'CMMDCCD'
p1010
aa(lp1011
S'CMPD'
p1012
aS'CMPD'
p1013
aa(lp1014
S'CPCCCCCCCD'
p1015
aS'CPCCCCCCCD'
p1016
aa(lp1017
S'CPCCCCD'
p1018
aS'CPCCCCD'
p1019
aa(lp1020
S'CPCCCD'
p1021
aS'CPCCCD'
p1022
aa(lp1023
S'CPCCD'
p1024
aS'CPCCD'
p1025
aa(lp1026
S'CPCCDGJD'
p1027
aS'CPCCDGJD'
p1028
aa(lp1029
S'CPCD'
p1030
aS'CPCD'
p1031
aa(lp1032
S'CPCDCCD'
p1033
aS'CPCDCCD'
p1034
aa(lp1035
S'CPCDD'
p1036
aS'CPCDD'
p1037
aa(lp1038
S'CPCPD'
p1039
aS'CPCPD'
p1040
aa(lp1041
S'CPD'
p1042
aS'CPD'
p1043
aa(lp1044
S'CPDCCD'
p1045
aS'CPDCCD'
p1046
aa(lp1047
S'CPDCD'
p1048
aS'CPDCD'
p1049
aa(lp1050
S'CPDD'
p1051
aS'CPDD'
p1052
aa(lp1053
S'CPDFCD'
p1054
aS'CPDFCD'
p1055
aa(lp1056
S'CPDGD'
p1057
aS'CPDGD'
p1058
aa(lp1059
S'CPDWGWD'
p1060
aS'CPDWGWD'
p1061
aa(lp1062
S'CPGCD'
p1063
aS'CPGCD'
p1064
aa(lp1065
S'CPGD'
p1066
aS'CPGD'
p1067
aa(lp1068
S'CPGID'
p1069
aS'CPGID'
p1070
aa(lp1071
S'CPICD'
p1072
aS'CPICD'
p1073
aa(lp1074
S'CPID'
p1075
aS'CPID'
p1076
aa(lp1077
S'CPIWGWD'
p1078
aS'CPIWGWD'
p1079
aa(lp1080
S'CPJCD'
p1081
aS'CPJCD'
p1082
aa(lp1083
S'CPJD'
p1084
aS'CPJD'
p1085
aa(lp1086
S'CPJGD'
p1087
aS'CPJGD'
p1088
aa(lp1089
S'CPJPD'
p1090
aS'CPJPD'
p1091
aa(lp1092
S'CPMD'
p1093
aS'CPMD'
p1094
aa(lp1095
S'CPPCD'
p1096
aS'CPPCD'
p1097
aa(lp1098
S'CPPD'
p1099
aS'CPPD'
p1100
aa(lp1101
S'CPWGWDGD'
p1102
aS'CPWGWDGD'
p1103
aa(lp1104
S'CWCD'
p1105
aS'CWCD'
p1106
aa(lp1107
S'CWCGWCCD'
p1108
aS'CWCGWCCD'
p1109
aa(lp1110
S'CWCWD'
p1111
aS'CWCWD'
p1112
aa(lp1113
S'CWDWDD'
p1114
aS'CWDWDD'
p1115
aa(lp1116
S'CWGWCCD'
p1117
aS'CWGWCCD'
p1118
aa(lp1119
S'CWGWCD'
p1120
aS'CWGWCD'
p1121
aa(lp1122
S'CWPWD'
p1123
aS'CWPWD'
p1124
aa(lp1125
S'DCCCCCD'
p1126
aS'DCCCCCD'
p1127
aa(lp1128
S'DCCCCD'
p1129
aS'DCCCCD'
p1130
aa(lp1131
S'DCCCCDCCD'
p1132
aS'DCCCCDCCD'
p1133
aa(lp1134
S'DCCCD'
p1135
aS'DCCCD'
p1136
aa(lp1137
S'DCCD'
p1138
aS'DCCD'
p1139
aa(lp1140
S'DCD'
p1141
aS'DCD'
p1142
aa(lp1143
S'DCDD'
p1144
aS'DCDD'
p1145
aa(lp1146
S'DCGCD'
p1147
aS'DCGCD'
p1148
aa(lp1149
S'DCJD'
p1150
aS'DCJD'
p1151
aa(lp1152
S'DCPD'
p1153
aS'DCPD'
p1154
aa(lp1155
S'DD'
p1156
aS'DD'
p1157
aa(lp1158
S'DDCCD'
p1159
aS'DDCCD'
p1160
aa(lp1161
S'DDCD'
p1162
aS'DDCD'
p1163
aa(lp1164
S'DDD'
p1165
aS'DDD'
p1166
aa(lp1167
S'DDICCD'
p1168
aS'DDICCD'
p1169
aa(lp1170
S'DFD'
p1171
aS'DFD'
p1172
aa(lp1173
S'DGCCD'
p1174
aS'DGCCD'
p1175
aa(lp1176
S'DGCD'
p1177
aS'DGCD'
p1178
aa(lp1179
S'DGDCD'
p1180
aS'DGDCD'
p1181
aa(lp1182
S'DGDD'
p1183
aS'DGDD'
p1184
aa(lp1185
S'DGDPD'
p1186
aS'DGDPD'
p1187
aa(lp1188
S'DGGD'
p1189
aS'DGGD'
p1190
aa(lp1191
S'DICCCD'
p1192
aS'DICCCD'
p1193
aa(lp1194
S'DICD'
p1195
aS'DICD'
p1196
aa(lp1197
S'DID'
p1198
aS'DID'
p1199
aa(lp1200
S'DIICD'
p1201
aS'DIICD'
p1202
aa(lp1203
S'DJCCD'
p1204
aS'DJCCD'
p1205
aa(lp1206
S'DJCD'
p1207
aS'DJCD'
p1208
aa(lp1209
S'DJD'
p1210
aS'DJD'
p1211
aa(lp1212
S'DLCCD'
p1213
aS'DLCCD'
p1214
aa(lp1215
S'DLCD'
p1216
aS'DLCD'
p1217
aa(lp1218
S'DLD'
p1219
aS'DLD'
p1220
aa(lp1221
S'DMCD'
p1222
aS'DMCD'
p1223
aa(lp1224
S'DMD'
p1225
aS'DMD'
p1226
aa(lp1227
S'DMMCD'
p1228
aS'DMMCD'
p1229
aa(lp1230
S'DPD'
p1231
aS'DPD'
p1232
aa(lp1233
S'DPMMCCD'
p1234
aS'DPMMCCD'
p1235
aa(lp1236
S'FCCCCCCCD'
p1237
aS'FCCCCCCCD'
p1238
aa(lp1239
S'FCCCCCD'
p1240
aS'FCCCCCD'
p1241
aa(lp1242
S'FCCCCD'
p1243
aS'FCCCCD'
p1244
aa(lp1245
S'FCCCCGD'
p1246
aS'FCCCCGD'
p1247
aa(lp1248
S'FCCCD'
p1249
aS'FCCCD'
p1250
aa(lp1251
S'FCCCDGD'
p1252
aS'FCCCDGD'
p1253
aa(lp1254
S'FCCCPCD'
p1255
aS'FCCCPCD'
p1256
aa(lp1257
S'FCCCWGWD'
p1258
aS'FCCCWGWD'
p1259
aa(lp1260
S'FCCD'
p1261
aS'FCCD'
p1262
aa(lp1263
S'FCCDD'
p1264
aS'FCCDD'
p1265
aa(lp1266
S'FCCDFCGD'
p1267
aS'FCCDFCGD'
p1268
aa(lp1269
S'FCCDGD'
p1270
aS'FCCDGD'
p1271
aa(lp1272
S'FCCDIPD'
p1273
aS'FCCDIPD'
p1274
aa(lp1275
S'FCCDWGWD'
p1276
aS'FCCDWGWD'
p1277
aa(lp1278
S'FCCGD'
p1279
aS'FCCGD'
p1280
aa(lp1281
S'FCCID'
p1282
aS'FCCID'
p1283
aa(lp1284
S'FCCPCD'
p1285
aS'FCCPCD'
p1286
aa(lp1287
S'FCCPD'
p1288
aS'FCCPD'
p1289
aa(lp1290
S'FCCWGWD'
p1291
aS'FCCWGWD'
p1292
aa(lp1293
S'FCCWGWDD'
p1294
aS'FCCWGWDD'
p1295
aa(lp1296
S'FCD'
p1297
aS'FCD'
p1298
aa(lp1299
S'FCDCD'
p1300
aS'FCDCD'
p1301
aa(lp1302
S'FCDD'
p1303
aS'FCDD'
p1304
aa(lp1305
S'FCDFD'
p1306
aS'FCDFD'
p1307
aa(lp1308
S'FCDGD'
p1309
aS'FCDGD'
p1310
aa(lp1311
S'FCDWD'
p1312
aS'FCDWD'
p1313
aa(lp1314
S'FCDWGD'
p1315
aS'FCDWGD'
p1316
aa(lp1317
S'FCFCD'
p1318
aS'FCFCD'
p1319
aa(lp1320
S'FCFPD'
p1321
aS'FCFPD'
p1322
aa(lp1323
S'FCFWGWD'
p1324
aS'FCFWGWD'
p1325
aa(lp1326
S'FCGCCD'
p1327
aS'FCGCCD'
p1328
aa(lp1329
S'FCGCD'
p1330
aS'FCGCD'
p1331
aa(lp1332
S'FCGD'
p1333
aS'FCGD'
p1334
aa(lp1335
S'FCICCD'
p1336
aS'FCICCD'
p1337
aa(lp1338
S'FCICDGD'
p1339
aS'FCICDGD'
p1340
aa(lp1341
S'FCID'
p1342
aS'FCID'
p1343
aa(lp1344
S'FCIJJD'
p1345
aS'FCIJJD'
p1346
aa(lp1347
S'FCIWGWDD'
p1348
aS'FCIWGWDD'
p1349
aa(lp1350
S'FCJCD'
p1351
aS'FCJCD'
p1352
aa(lp1353
S'FCJD'
p1354
aS'FCJD'
p1355
aa(lp1356
S'FCPCD'
p1357
aS'FCPCD'
p1358
aa(lp1359
S'FCPCPD'
p1360
aS'FCPCPD'
p1361
aa(lp1362
S'FCPD'
p1363
aS'FCPD'
p1364
aa(lp1365
S'FCPDGD'
p1366
aS'FCPDGD'
p1367
aa(lp1368
S'FCPGCD'
p1369
aS'FCPGCD'
p1370
aa(lp1371
S'FCPPGD'
p1372
aS'FCPPGD'
p1373
aa(lp1374
S'FCWGWCD'
p1375
aS'FCWGWCD'
p1376
aa(lp1377
S'FCWGWD'
p1378
aS'FCWGWD'
p1379
aa(lp1380
S'FCWGWDD'
p1381
aS'FCWGWDD'
p1382
aa(lp1383
S'FD'
p1384
aS'FD'
p1385
aa(lp1386
S'FDCD'
p1387
aS'FDCD'
p1388
aa(lp1389
S'FDD'
p1390
aS'FDD'
p1391
aa(lp1392
S'FDDD'
p1393
aS'FDDD'
p1394
aa(lp1395
S'FDFD'
p1396
aS'FDFD'
p1397
aa(lp1398
S'FDGCCD'
p1399
aS'FDGCCD'
p1400
aa(lp1401
S'FDGD'
p1402
aS'FDGD'
p1403
aa(lp1404
S'FDGJCCD'
p1405
aS'FDGJCCD'
p1406
aa(lp1407
S'FDID'
p1408
aS'FDID'
p1409
aa(lp1410
S'FDLCD'
p1411
aS'FDLCD'
p1412
aa(lp1413
S'FDWGWD'
p1414
aS'FDWGWD'
p1415
aa(lp1416
S'FFCCD'
p1417
aS'FFCCD'
p1418
aa(lp1419
S'FFCCWGWD'
p1420
aS'FFCCWGWD'
p1421
aa(lp1422
S'FFCD'
p1423
aS'FFCD'
p1424
aa(lp1425
S'FFCKFCCD'
p1426
aS'FFCKFCCD'
p1427
aa(lp1428
S'FFCLLD'
p1429
aS'FFCLLD'
p1430
aa(lp1431
S'FFD'
p1432
aS'FFD'
p1433
aa(lp1434
S'FFFD'
p1435
aS'FFFD'
p1436
aa(lp1437
S'FFFFD'
p1438
aS'FFFFD'
p1439
aa(lp1440
S'FFFFFWWFD'
p1441
aS'FFFFFWWFD'
p1442
aa(lp1443
S'FFFFWWD'
p1444
aS'FFFFWWD'
p1445
aa(lp1446
S'FFFWD'
p1447
aS'FFFWD'
p1448
aa(lp1449
S'FFFWWD'
p1450
aS'FFFWWD'
p1451
aa(lp1452
S'FFFWWFD'
p1453
aS'FFFWWFD'
p1454
aa(lp1455
S'FFGCCD'
p1456
aS'FFGCCD'
p1457
aa(lp1458
S'FFGD'
p1459
aS'FFGD'
p1460
aa(lp1461
S'FFJCD'
p1462
aS'FFJCD'
p1463
aa(lp1464
S'FFJD'
p1465
aS'FFJD'
p1466
aa(lp1467
S'FFJPCD'
p1468
aS'FFJPCD'
p1469
aa(lp1470
S'FFPD'
p1471
aS'FFPD'
p1472
aa(lp1473
S'FFWWD'
p1474
aS'FFWWD'
p1475
aa(lp1476
S'FGCCD'
p1477
aS'FGCCD'
p1478
aa(lp1479
S'FGCD'
p1480
aS'FGCD'
p1481
aa(lp1482
S'FGCGCGCJCD'
p1483
aS'FGCGCGCJCD'
p1484
aa(lp1485
S'FGD'
p1486
aS'FGD'
p1487
aa(lp1488
S'FGDD'
p1489
aS'FGDD'
p1490
aa(lp1491
S'FGFD'
p1492
aS'FGFD'
p1493
aa(lp1494
S'FGFPCCD'
p1495
aS'FGFPCCD'
p1496
aa(lp1497
S'FGJCCD'
p1498
aS'FGJCCD'
p1499
aa(lp1500
S'FGJWGWD'
p1501
aS'FGJWGWD'
p1502
aa(lp1503
S'FICCCD'
p1504
aS'FICCCD'
p1505
aa(lp1506
S'FICCD'
p1507
aS'FICCD'
p1508
aa(lp1509
S'FICD'
p1510
aS'FICD'
p1511
aa(lp1512
S'FICDD'
p1513
aS'FICDD'
p1514
aa(lp1515
S'FICDGD'
p1516
aS'FICDGD'
p1517
aa(lp1518
S'FICGD'
p1519
aS'FICGD'
p1520
aa(lp1521
S'FICGWD'
p1522
aS'FICGWD'
p1523
aa(lp1524
S'FICID'
p1525
aS'FICID'
p1526
aa(lp1527
S'FICJD'
p1528
aS'FICJD'
p1529
aa(lp1530
S'FID'
p1531
aS'FID'
p1532
aa(lp1533
S'FIDCD'
p1534
aS'FIDCD'
p1535
aa(lp1536
S'FIDD'
p1537
aS'FIDD'
p1538
aa(lp1539
S'FIFPD'
p1540
aS'FIFPD'
p1541
aa(lp1542
S'FIICD'
p1543
aS'FIICD'
p1544
aa(lp1545
S'FIID'
p1546
aS'FIID'
p1547
aa(lp1548
S'FIJCD'
p1549
aS'FIJCD'
p1550
aa(lp1551
S'FIJD'
p1552
aS'FIJD'
p1553
aa(lp1554
S'FIWGWCDD'
p1555
aS'FIWGWCDD'
p1556
aa(lp1557
S'FIWGWD'
p1558
aS'FIWGWD'
p1559
aa(lp1560
S'FIWGWDD'
p1561
aS'FIWGWDD'
p1562
aa(lp1563
S'FJCCD'
p1564
aS'FJCCD'
p1565
aa(lp1566
S'FJCCDD'
p1567
aS'FJCCDD'
p1568
aa(lp1569
S'FJCD'
p1570
aS'FJCD'
p1571
aa(lp1572
S'FJCDD'
p1573
aS'FJCDD'
p1574
aa(lp1575
S'FJD'
p1576
aS'FJD'
p1577
aa(lp1578
S'FJDCD'
p1579
aS'FJDCD'
p1580
aa(lp1581
S'FJDD'
p1582
aS'FJDD'
p1583
aa(lp1584
S'FJGD'
p1585
aS'FJGD'
p1586
aa(lp1587
S'FJGPCD'
p1588
aS'FJGPCD'
p1589
aa(lp1590
S'FJID'
p1591
aS'FJID'
p1592
aa(lp1593
S'FJJCCD'
p1594
aS'FJJCCD'
p1595
aa(lp1596
S'FJJCD'
p1597
aS'FJJCD'
p1598
aa(lp1599
S'FJJCLCD'
p1600
aS'FJJCLCD'
p1601
aa(lp1602
S'FJJD'
p1603
aS'FJJD'
p1604
aa(lp1605
S'FJJGD'
p1606
aS'FJJGD'
p1607
aa(lp1608
S'FJJJCCD'
p1609
aS'FJJJCCD'
p1610
aa(lp1611
S'FJJJD'
p1612
aS'FJJJD'
p1613
aa(lp1614
S'FJJJICCD'
p1615
aS'FJJJICCD'
p1616
aa(lp1617
S'FJJLJLCD'
p1618
aS'FJJLJLCD'
p1619
aa(lp1620
S'FJPJD'
p1621
aS'FJPJD'
p1622
aa(lp1623
S'FKCD'
p1624
aS'FKCD'
p1625
aa(lp1626
S'FKCJD'
p1627
aS'FKCJD'
p1628
aa(lp1629
S'FLD'
p1630
aS'FLD'
p1631
aa(lp1632
S'FLPCD'
p1633
aS'FLPCD'
p1634
aa(lp1635
S'FMJD'
p1636
aS'FMJD'
p1637
aa(lp1638
S'FPCCCD'
p1639
aS'FPCCCD'
p1640
aa(lp1641
S'FPCCD'
p1642
aS'FPCCD'
p1643
aa(lp1644
S'FPCD'
p1645
aS'FPCD'
p1646
aa(lp1647
S'FPCDD'
p1648
aS'FPCDD'
p1649
aa(lp1650
S'FPD'
p1651
aS'FPD'
p1652
aa(lp1653
S'FPDD'
p1654
aS'FPDD'
p1655
aa(lp1656
S'FPFD'
p1657
aS'FPFD'
p1658
aa(lp1659
S'FPFDD'
p1660
aS'FPFDD'
p1661
aa(lp1662
S'FPID'
p1663
aS'FPID'
p1664
aa(lp1665
S'FPIDGD'
p1666
aS'FPIDGD'
p1667
aa(lp1668
S'FPJCCD'
p1669
aS'FPJCCD'
p1670
aa(lp1671
S'FPJCD'
p1672
aS'FPJCD'
p1673
aa(lp1674
S'FPPCD'
p1675
aS'FPPCD'
p1676
aa(lp1677
S'FPPD'
p1678
aS'FPPD'
p1679
aa(lp1680
S'FPPDLD'
p1681
aS'FPPDLD'
p1682
aa(lp1683
S'FPWCWD'
p1684
aS'FPWCWD'
p1685
aa(lp1686
S'FWCCCWCD'
p1687
aS'FWCCCWCD'
p1688
aa(lp1689
S'FWCCCWD'
p1690
aS'FWCCCWD'
p1691
aa(lp1692
S'FWDWD'
p1693
aS'FWDWD'
p1694
aa(lp1695
S'FWFD'
p1696
aS'FWFD'
p1697
aa(lp1698
S'FWFWCCCWD'
p1699
aS'FWFWCCCWD'
p1700
aa(lp1701
S'FWFWFD'
p1702
aS'FWFWFD'
p1703
aa(lp1704
S'FWGCD'
p1705
aS'FWGCD'
p1706
aa(lp1707
S'FWGJCD'
p1708
aS'FWGJCD'
p1709
aa(lp1710
S'FWGWCCD'
p1711
aS'FWGWCCD'
p1712
aa(lp1713
S'FWGWCD'
p1714
aS'FWGWCD'
p1715
aa(lp1716
S'FWGWCDGCD'
p1717
aS'FWGWCDGCD'
p1718
aa(lp1719
S'FWGWCDGD'
p1720
aS'FWGWCDGD'
p1721
aa(lp1722
S'FWGWGD'
p1723
aS'FWGWGD'
p1724
aa(lp1725
S'FWJD'
p1726
aS'FWJD'
p1727
aa(lp1728
S'GCCCCCCCD'
p1729
aS'GCCCCCCCD'
p1730
aa(lp1731
S'GCCCCCCD'
p1732
aS'GCCCCCCD'
p1733
aa(lp1734
S'GCCCCCCDCD'
p1735
aS'GCCCCCCDCD'
p1736
aa(lp1737
S'GCCCCCD'
p1738
aS'GCCCCCD'
p1739
aa(lp1740
S'GCCCCCDCD'
p1741
aS'GCCCCCDCD'
p1742
aa(lp1743
S'GCCCCCDD'
p1744
aS'GCCCCCDD'
p1745
aa(lp1746
S'GCCCCCDGD'
p1747
aS'GCCCCCDGD'
p1748
aa(lp1749
S'GCCCCCID'
p1750
aS'GCCCCCID'
p1751
aa(lp1752
S'GCCCCCKFD'
p1753
aS'GCCCCCKFD'
p1754
aa(lp1755
S'GCCCCD'
p1756
aS'GCCCCD'
p1757
aa(lp1758
S'GCCCCDCCD'
p1759
aS'GCCCCDCCD'
p1760
aa(lp1761
S'GCCCCDCD'
p1762
aS'GCCCCDCD'
p1763
aa(lp1764
S'GCCCCDD'
p1765
aS'GCCCCDD'
p1766
aa(lp1767
S'GCCCCDGCD'
p1768
aS'GCCCCDGCD'
p1769
aa(lp1770
S'GCCCCDGCIJD'
p1771
aS'GCCCCDGCIJD'
p1772
aa(lp1773
S'GCCCCDGDGDDDD'
p1774
aS'GCCCCDGDGDDDD'
p1775
aa(lp1776
S'GCCCCDWFCCD'
p1777
aS'GCCCCDWFCCD'
p1778
aa(lp1779
S'GCCCCDWGD'
p1780
aS'GCCCCDWGD'
p1781
aa(lp1782
S'GCCCCFCCCCD'
p1783
aS'GCCCCFCCCCD'
p1784
aa(lp1785
S'GCCCCGD'
p1786
aS'GCCCCGD'
p1787
aa(lp1788
S'GCCCCID'
p1789
aS'GCCCCID'
p1790
aa(lp1791
S'GCCCCJD'
p1792
aS'GCCCCJD'
p1793
aa(lp1794
S'GCCCCPD'
p1795
aS'GCCCCPD'
p1796
aa(lp1797
S'GCCCCWDWD'
p1798
aS'GCCCCWDWD'
p1799
aa(lp1800
S'GCCCD'
p1801
aS'GCCCD'
p1802
aa(lp1803
S'GCCCDCCCD'
p1804
aS'GCCCDCCCD'
p1805
aa(lp1806
S'GCCCDCCCDD'
p1807
aS'GCCCDCCCDD'
p1808
aa(lp1809
S'GCCCDCCD'
p1810
aS'GCCCDCCD'
p1811
aa(lp1812
S'GCCCDCD'
p1813
aS'GCCCDCD'
p1814
aa(lp1815
S'GCCCDCPD'
p1816
aS'GCCCDCPD'
p1817
aa(lp1818
S'GCCCDD'
p1819
aS'GCCCDD'
p1820
aa(lp1821
S'GCCCDDGCD'
p1822
aS'GCCCDDGCD'
p1823
aa(lp1824
S'GCCCDDGD'
p1825
aS'GCCCDDGD'
p1826
aa(lp1827
S'GCCCDDJD'
p1828
aS'GCCCDDJD'
p1829
aa(lp1830
S'GCCCDFCD'
p1831
aS'GCCCDFCD'
p1832
aa(lp1833
S'GCCCDGD'
p1834
aS'GCCCDGD'
p1835
aa(lp1836
S'GCCCDGID'
p1837
aS'GCCCDGID'
p1838
aa(lp1839
S'GCCCDICD'
p1840
aS'GCCCDICD'
p1841
aa(lp1842
S'GCCCDID'
p1843
aS'GCCCDID'
p1844
aa(lp1845
S'GCCCDMCD'
p1846
aS'GCCCDMCD'
p1847
aa(lp1848
S'GCCCDMD'
p1849
aS'GCCCDMD'
p1850
aa(lp1851
S'GCCCDPD'
p1852
aS'GCCCDPD'
p1853
aa(lp1854
S'GCCCDWGCDWD'
p1855
aS'GCCCDWGCDWD'
p1856
aa(lp1857
S'GCCCDWGCDWFCCD'
p1858
aS'GCCCDWGCDWFCCD'
p1859
aa(lp1860
S'GCCCDWGD'
p1861
aS'GCCCDWGD'
p1862
aa(lp1863
S'GCCCDWGWD'
p1864
aS'GCCCDWGWD'
p1865
aa(lp1866
S'GCCCDWID'
p1867
aS'GCCCDWID'
p1868
aa(lp1869
S'GCCCFCD'
p1870
aS'GCCCFCD'
p1871
aa(lp1872
S'GCCCGD'
p1873
aS'GCCCGD'
p1874
aa(lp1875
S'GCCCGPD'
p1876
aS'GCCCGPD'
p1877
aa(lp1878
S'GCCCICD'
p1879
aS'GCCCICD'
p1880
aa(lp1881
S'GCCCID'
p1882
aS'GCCCID'
p1883
aa(lp1884
S'GCCCIJD'
p1885
aS'GCCCIJD'
p1886
aa(lp1887
S'GCCCJCCD'
p1888
aS'GCCCJCCD'
p1889
aa(lp1890
S'GCCCJCD'
p1891
aS'GCCCJCD'
p1892
aa(lp1893
S'GCCCJD'
p1894
aS'GCCCJD'
p1895
aa(lp1896
S'GCCCJGD'
p1897
aS'GCCCJGD'
p1898
aa(lp1899
S'GCCCJJCD'
p1900
aS'GCCCJJCD'
p1901
aa(lp1902
S'GCCCLD'
p1903
aS'GCCCLD'
p1904
aa(lp1905
S'GCCCMCD'
p1906
aS'GCCCMCD'
p1907
aa(lp1908
S'GCCCMD'
p1909
aS'GCCCMD'
p1910
aa(lp1911
S'GCCCPCCD'
p1912
aS'GCCCPCCD'
p1913
aa(lp1914
S'GCCCWD'
p1915
aS'GCCCWD'
p1916
aa(lp1917
S'GCCCWDWD'
p1918
aS'GCCCWDWD'
p1919
aa(lp1920
S'GCCD'
p1921
aS'GCCD'
p1922
aa(lp1923
S'GCCDCCCCD'
p1924
aS'GCCDCCCCD'
p1925
aa(lp1926
S'GCCDCCCD'
p1927
aS'GCCDCCCD'
p1928
aa(lp1929
S'GCCDCCCDCD'
p1930
aS'GCCDCCCDCD'
p1931
aa(lp1932
S'GCCDCCD'
p1933
aS'GCCDCCD'
p1934
aa(lp1935
S'GCCDCCMD'
p1936
aS'GCCDCCMD'
p1937
aa(lp1938
S'GCCDCD'
p1939
aS'GCCDCD'
p1940
aa(lp1941
S'GCCDCID'
p1942
aS'GCCDCID'
p1943
aa(lp1944
S'GCCDCJCD'
p1945
aS'GCCDCJCD'
p1946
aa(lp1947
S'GCCDCPCD'
p1948
aS'GCCDCPCD'
p1949
aa(lp1950
S'GCCDD'
p1951
aS'GCCDD'
p1952
aa(lp1953
S'GCCDDCCCD'
p1954
aS'GCCDDCCCD'
p1955
aa(lp1956
S'GCCDDCCD'
p1957
aS'GCCDDCCD'
p1958
aa(lp1959
S'GCCDDD'
p1960
aS'GCCDDD'
p1961
aa(lp1962
S'GCCDDWD'
p1963
aS'GCCDDWD'
p1964
aa(lp1965
S'GCCDFCCD'
p1966
aS'GCCDFCCD'
p1967
aa(lp1968
S'GCCDFD'
p1969
aS'GCCDFD'
p1970
aa(lp1971
S'GCCDGCCD'
p1972
aS'GCCDGCCD'
p1973
aa(lp1974
S'GCCDGCD'
p1975
aS'GCCDGCD'
p1976
aa(lp1977
S'GCCDGCGD'
p1978
aS'GCCDGCGD'
p1979
aa(lp1980
S'GCCDGD'
p1981
aS'GCCDGD'
p1982
aa(lp1983
S'GCCDGDGCD'
p1984
aS'GCCDGDGCD'
p1985
aa(lp1986
S'GCCDGGDCD'
p1987
aS'GCCDGGDCD'
p1988
aa(lp1989
S'GCCDGJD'
p1990
aS'GCCDGJD'
p1991
aa(lp1992
S'GCCDID'
p1993
aS'GCCDID'
p1994
aa(lp1995
S'GCCDJCD'
p1996
aS'GCCDJCD'
p1997
aa(lp1998
S'GCCDJD'
p1999
aS'GCCDJD'
p2000
aa(lp2001
S'GCCDLDD'
p2002
aS'GCCDLDD'
p2003
aa(lp2004
S'GCCDLJCD'
p2005
aS'GCCDLJCD'
p2006
aa(lp2007
S'GCCDMJD'
p2008
aS'GCCDMJD'
p2009
aa(lp2010
S'GCCDMJMMCD'
p2011
aS'GCCDMJMMCD'
p2012
aa(lp2013
S'GCCDMJMMD'
p2014
aS'GCCDMJMMD'
p2015
aa(lp2016
S'GCCDMMD'
p2017
aS'GCCDMMD'
p2018
aa(lp2019
S'GCCDPD'
p2020
aS'GCCDPD'
p2021
aa(lp2022
S'GCCDPPCD'
p2023
aS'GCCDPPCD'
p2024
aa(lp2025
S'GCCDWD'
p2026
aS'GCCDWD'
p2027
aa(lp2028
S'GCCFCCD'
p2029
aS'GCCFCCD'
p2030
aa(lp2031
S'GCCFCD'
p2032
aS'GCCFCD'
p2033
aa(lp2034
S'GCCFDD'
p2035
aS'GCCFDD'
p2036
aa(lp2037
S'GCCFID'
p2038
aS'GCCFID'
p2039
aa(lp2040
S'GCCFJCD'
p2041
aS'GCCFJCD'
p2042
aa(lp2043
S'GCCFJPD'
p2044
aS'GCCFJPD'
p2045
aa(lp2046
S'GCCFPD'
p2047
aS'GCCFPD'
p2048
aa(lp2049
S'GCCFWCWCD'
p2050
aS'GCCFWCWCD'
p2051
aa(lp2052
S'GCCGCCCD'
p2053
aS'GCCGCCCD'
p2054
aa(lp2055
S'GCCGCCD'
p2056
aS'GCCGCCD'
p2057
aa(lp2058
S'GCCGCD'
p2059
aS'GCCGCD'
p2060
aa(lp2061
S'GCCGCDD'
p2062
aS'GCCGCDD'
p2063
aa(lp2064
S'GCCGD'
p2065
aS'GCCGD'
p2066
aa(lp2067
S'GCCGDCD'
p2068
aS'GCCGDCD'
p2069
aa(lp2070
S'GCCGFD'
p2071
aS'GCCGFD'
p2072
aa(lp2073
S'GCCGFICD'
p2074
aS'GCCGFICD'
p2075
aa(lp2076
S'GCCGGCGD'
p2077
aS'GCCGGCGD'
p2078
aa(lp2079
S'GCCGGDD'
p2080
aS'GCCGGDD'
p2081
aa(lp2082
S'GCCGID'
p2083
aS'GCCGID'
p2084
aa(lp2085
S'GCCGIID'
p2086
aS'GCCGIID'
p2087
aa(lp2088
S'GCCICCD'
p2089
aS'GCCICCD'
p2090
aa(lp2091
S'GCCICCDCCD'
p2092
aS'GCCICCDCCD'
p2093
aa(lp2094
S'GCCICD'
p2095
aS'GCCICD'
p2096
aa(lp2097
S'GCCICDCD'
p2098
aS'GCCICDCD'
p2099
aa(lp2100
S'GCCICWDD'
p2101
aS'GCCICWDD'
p2102
aa(lp2103
S'GCCID'
p2104
aS'GCCID'
p2105
aa(lp2106
S'GCCIDD'
p2107
aS'GCCIDD'
p2108
aa(lp2109
S'GCCIDWDCD'
p2110
aS'GCCIDWDCD'
p2111
aa(lp2112
S'GCCIID'
p2113
aS'GCCIID'
p2114
aa(lp2115
S'GCCIJD'
p2116
aS'GCCIJD'
p2117
aa(lp2118
S'GCCJCCCD'
p2119
aS'GCCJCCCD'
p2120
aa(lp2121
S'GCCJCCCID'
p2122
aS'GCCJCCCID'
p2123
aa(lp2124
S'GCCJCCD'
p2125
aS'GCCJCCD'
p2126
aa(lp2127
S'GCCJCD'
p2128
aS'GCCJCD'
p2129
aa(lp2130
S'GCCJCDD'
p2131
aS'GCCJCDD'
p2132
aa(lp2133
S'GCCJCGCD'
p2134
aS'GCCJCGCD'
p2135
aa(lp2136
S'GCCJCJD'
p2137
aS'GCCJCJD'
p2138
aa(lp2139
S'GCCJD'
p2140
aS'GCCJD'
p2141
aa(lp2142
S'GCCJDD'
p2143
aS'GCCJDD'
p2144
aa(lp2145
S'GCCJICD'
p2146
aS'GCCJICD'
p2147
aa(lp2148
S'GCCJID'
p2149
aS'GCCJID'
p2150
aa(lp2151
S'GCCJIDCD'
p2152
aS'GCCJIDCD'
p2153
aa(lp2154
S'GCCJPCD'
p2155
aS'GCCJPCD'
p2156
aa(lp2157
S'GCCJPD'
p2158
aS'GCCJPD'
p2159
aa(lp2160
S'GCCKD'
p2161
aS'GCCKD'
p2162
aa(lp2163
S'GCCKDGD'
p2164
aS'GCCKDGD'
p2165
aa(lp2166
S'GCCLCCD'
p2167
aS'GCCLCCD'
p2168
aa(lp2169
S'GCCLCD'
p2170
aS'GCCLCD'
p2171
aa(lp2172
S'GCCLCGCD'
p2173
aS'GCCLCGCD'
p2174
aa(lp2175
S'GCCLD'
p2176
aS'GCCLD'
p2177
aa(lp2178
S'GCCMCD'
p2179
aS'GCCMCD'
p2180
aa(lp2181
S'GCCMD'
p2182
aS'GCCMD'
p2183
aa(lp2184
S'GCCMJCD'
p2185
aS'GCCMJCD'
p2186
aa(lp2187
S'GCCMJJCD'
p2188
aS'GCCMJJCD'
p2189
aa(lp2190
S'GCCMPD'
p2191
aS'GCCMPD'
p2192
aa(lp2193
S'GCCPCCCCD'
p2194
aS'GCCPCCCCD'
p2195
aa(lp2196
S'GCCPCCCID'
p2197
aS'GCCPCCCID'
p2198
aa(lp2199
S'GCCPCCD'
p2200
aS'GCCPCCD'
p2201
aa(lp2202
S'GCCPCD'
p2203
aS'GCCPCD'
p2204
aa(lp2205
S'GCCPD'
p2206
aS'GCCPD'
p2207
aa(lp2208
S'GCCPDD'
p2209
aS'GCCPDD'
p2210
aa(lp2211
S'GCCPFWCJD'
p2212
aS'GCCPFWCJD'
p2213
aa(lp2214
S'GCCPJD'
p2215
aS'GCCPJD'
p2216
aa(lp2217
S'GCCWCCWCD'
p2218
aS'GCCWCCWCD'
p2219
aa(lp2220
S'GCCWCDWCD'
p2221
aS'GCCWCDWCD'
p2222
aa(lp2223
S'GCCWD'
p2224
aS'GCCWD'
p2225
aa(lp2226
S'GCCWDWCCD'
p2227
aS'GCCWDWCCD'
p2228
aa(lp2229
S'GCCWDWD'
p2230
aS'GCCWDWD'
p2231
aa(lp2232
S'GCD'
p2233
aS'GCD'
p2234
aa(lp2235
S'GCDCCCCD'
p2236
aS'GCDCCCCD'
p2237
aa(lp2238
S'GCDCCCCPD'
p2239
aS'GCDCCCCPD'
p2240
aa(lp2241
S'GCDCCCD'
p2242
aS'GCDCCCD'
p2243
aa(lp2244
S'GCDCCCDGD'
p2245
aS'GCDCCCDGD'
p2246
aa(lp2247
S'GCDCCD'
p2248
aS'GCDCCD'
p2249
aa(lp2250
S'GCDCCDCD'
p2251
aS'GCDCCDCD'
p2252
aa(lp2253
S'GCDCCDD'
p2254
aS'GCDCCDD'
p2255
aa(lp2256
S'GCDCCDID'
p2257
aS'GCDCCDID'
p2258
aa(lp2259
S'GCDCCJCD'
p2260
aS'GCDCCJCD'
p2261
aa(lp2262
S'GCDCCJD'
p2263
aS'GCDCCJD'
p2264
aa(lp2265
S'GCDCD'
p2266
aS'GCDCD'
p2267
aa(lp2268
S'GCDCDD'
p2269
aS'GCDCDD'
p2270
aa(lp2271
S'GCDCDICD'
p2272
aS'GCDCDICD'
p2273
aa(lp2274
S'GCDCGCD'
p2275
aS'GCDCGCD'
p2276
aa(lp2277
S'GCDCGD'
p2278
aS'GCDCGD'
p2279
aa(lp2280
S'GCDCGMCD'
p2281
aS'GCDCGMCD'
p2282
aa(lp2283
S'GCDCID'
p2284
aS'GCDCID'
p2285
aa(lp2286
S'GCDCJCD'
p2287
aS'GCDCJCD'
p2288
aa(lp2289
S'GCDCJD'
p2290
aS'GCDCJD'
p2291
aa(lp2292
S'GCDCLDD'
p2293
aS'GCDCLDD'
p2294
aa(lp2295
S'GCDCMCD'
p2296
aS'GCDCMCD'
p2297
aa(lp2298
S'GCDCMD'
p2299
aS'GCDCMD'
p2300
aa(lp2301
S'GCDCMDCD'
p2302
aS'GCDCMDCD'
p2303
aa(lp2304
S'GCDCMDD'
p2305
aS'GCDCMDD'
p2306
aa(lp2307
S'GCDCMDID'
p2308
aS'GCDCMDID'
p2309
aa(lp2310
S'GCDCPD'
p2311
aS'GCDCPD'
p2312
aa(lp2313
S'GCDCWDWD'
p2314
aS'GCDCWDWD'
p2315
aa(lp2316
S'GCDD'
p2317
aS'GCDD'
p2318
aa(lp2319
S'GCDDCD'
p2320
aS'GCDDCD'
p2321
aa(lp2322
S'GCDDD'
p2323
aS'GCDDD'
p2324
aa(lp2325
S'GCDDDD'
p2326
aS'GCDDDD'
p2327
aa(lp2328
S'GCDDJCD'
p2329
aS'GCDDJCD'
p2330
aa(lp2331
S'GCDDMCD'
p2332
aS'GCDDMCD'
p2333
aa(lp2334
S'GCDFCD'
p2335
aS'GCDFCD'
p2336
aa(lp2337
S'GCDFD'
p2338
aS'GCDFD'
p2339
aa(lp2340
S'GCDFGCD'
p2341
aS'GCDFGCD'
p2342
aa(lp2343
S'GCDFID'
p2344
aS'GCDFID'
p2345
aa(lp2346
S'GCDFJD'
p2347
aS'GCDFJD'
p2348
aa(lp2349
S'GCDFWFD'
p2350
aS'GCDFWFD'
p2351
aa(lp2352
S'GCDGCCCCCD'
p2353
aS'GCDGCCCCCD'
p2354
aa(lp2355
S'GCDGCCD'
p2356
aS'GCDGCCD'
p2357
aa(lp2358
S'GCDGCD'
p2359
aS'GCDGCD'
p2360
aa(lp2361
S'GCDGCGD'
p2362
aS'GCDGCGD'
p2363
aa(lp2364
S'GCDGD'
p2365
aS'GCDGD'
p2366
aa(lp2367
S'GCDGDD'
p2368
aS'GCDGDD'
p2369
aa(lp2370
S'GCDGGD'
p2371
aS'GCDGGD'
p2372
aa(lp2373
S'GCDGGGCD'
p2374
aS'GCDGGGCD'
p2375
aa(lp2376
S'GCDGIID'
p2377
aS'GCDGIID'
p2378
aa(lp2379
S'GCDGLCCD'
p2380
aS'GCDGLCCD'
p2381
aa(lp2382
S'GCDGLJPCD'
p2383
aS'GCDGLJPCD'
p2384
aa(lp2385
S'GCDICCCCD'
p2386
aS'GCDICCCCD'
p2387
aa(lp2388
S'GCDICCD'
p2389
aS'GCDICCD'
p2390
aa(lp2391
S'GCDICD'
p2392
aS'GCDICD'
p2393
aa(lp2394
S'GCDID'
p2395
aS'GCDID'
p2396
aa(lp2397
S'GCDIDD'
p2398
aS'GCDIDD'
p2399
aa(lp2400
S'GCDIID'
p2401
aS'GCDIID'
p2402
aa(lp2403
S'GCDJCCD'
p2404
aS'GCDJCCD'
p2405
aa(lp2406
S'GCDJCD'
p2407
aS'GCDJCD'
p2408
aa(lp2409
S'GCDJCDGPD'
p2410
aS'GCDJCDGPD'
p2411
aa(lp2412
S'GCDJD'
p2413
aS'GCDJD'
p2414
aa(lp2415
S'GCDJJD'
p2416
aS'GCDJJD'
p2417
aa(lp2418
S'GCDKCDCD'
p2419
aS'GCDKCDCD'
p2420
aa(lp2421
S'GCDKD'
p2422
aS'GCDKD'
p2423
aa(lp2424
S'GCDLCCCD'
p2425
aS'GCDLCCCD'
p2426
aa(lp2427
S'GCDLD'
p2428
aS'GCDLD'
p2429
aa(lp2430
S'GCDLGCCCCD'
p2431
aS'GCDLGCCCCD'
p2432
aa(lp2433
S'GCDLGCD'
p2434
aS'GCDLGCD'
p2435
aa(lp2436
S'GCDLPD'
p2437
aS'GCDLPD'
p2438
aa(lp2439
S'GCDMCD'
p2440
aS'GCDMCD'
p2441
aa(lp2442
S'GCDMCDD'
p2443
aS'GCDMCDD'
p2444
aa(lp2445
S'GCDMD'
p2446
aS'GCDMD'
p2447
aa(lp2448
S'GCDMDD'
p2449
aS'GCDMDD'
p2450
aa(lp2451
S'GCDMDFD'
p2452
aS'GCDMDFD'
p2453
aa(lp2454
S'GCDMJD'
p2455
aS'GCDMJD'
p2456
aa(lp2457
S'GCDPCD'
p2458
aS'GCDPCD'
p2459
aa(lp2460
S'GCDPD'
p2461
aS'GCDPD'
p2462
aa(lp2463
S'GCDPGD'
p2464
aS'GCDPGD'
p2465
aa(lp2466
S'GCDWD'
p2467
aS'GCDWD'
p2468
aa(lp2469
S'GCDWDWD'
p2470
aS'GCDWDWD'
p2471
aa(lp2472
S'GCDWFWD'
p2473
aS'GCDWFWD'
p2474
aa(lp2475
S'GCDWGWCD'
p2476
aS'GCDWGWCD'
p2477
aa(lp2478
S'GCDWGWD'
p2479
aS'GCDWGWD'
p2480
aa(lp2481
S'GCFCCCD'
p2482
aS'GCFCCCD'
p2483
aa(lp2484
S'GCFCCCDGD'
p2485
aS'GCFCCCDGD'
p2486
aa(lp2487
S'GCFCCD'
p2488
aS'GCFCCD'
p2489
aa(lp2490
S'GCFCCJFGDD'
p2491
aS'GCFCCJFGDD'
p2492
aa(lp2493
S'GCFCD'
p2494
aS'GCFCD'
p2495
aa(lp2496
S'GCFCDICD'
p2497
aS'GCFCDICD'
p2498
aa(lp2499
S'GCFCDWGD'
p2500
aS'GCFCDWGD'
p2501
aa(lp2502
S'GCFCIFD'
p2503
aS'GCFCIFD'
p2504
aa(lp2505
S'GCFCJD'
p2506
aS'GCFCJD'
p2507
aa(lp2508
S'GCFD'
p2509
aS'GCFD'
p2510
aa(lp2511
S'GCFDD'
p2512
aS'GCFDD'
p2513
aa(lp2514
S'GCFDDCID'
p2515
aS'GCFDDCID'
p2516
aa(lp2517
S'GCFFD'
p2518
aS'GCFFD'
p2519
aa(lp2520
S'GCFFJD'
p2521
aS'GCFFJD'
p2522
aa(lp2523
S'GCFGJPCD'
p2524
aS'GCFGJPCD'
p2525
aa(lp2526
S'GCFICD'
p2527
aS'GCFICD'
p2528
aa(lp2529
S'GCFID'
p2530
aS'GCFID'
p2531
aa(lp2532
S'GCFIDFD'
p2533
aS'GCFIDFD'
p2534
aa(lp2535
S'GCFJCCD'
p2536
aS'GCFJCCD'
p2537
aa(lp2538
S'GCFJD'
p2539
aS'GCFJD'
p2540
aa(lp2541
S'GCFJDD'
p2542
aS'GCFJDD'
p2543
aa(lp2544
S'GCFJPD'
p2545
aS'GCFJPD'
p2546
aa(lp2547
S'GCFPCCCD'
p2548
aS'GCFPCCCD'
p2549
aa(lp2550
S'GCFPCD'
p2551
aS'GCFPCD'
p2552
aa(lp2553
S'GCFPD'
p2554
aS'GCFPD'
p2555
aa(lp2556
S'GCFPDD'
p2557
aS'GCFPDD'
p2558
aa(lp2559
S'GCFPID'
p2560
aS'GCFPID'
p2561
aa(lp2562
S'GCFWGCCD'
p2563
aS'GCFWGCCD'
p2564
aa(lp2565
S'GCFWGCCDD'
p2566
aS'GCFWGCCDD'
p2567
aa(lp2568
S'GCFWGJCD'
p2569
aS'GCFWGJCD'
p2570
aa(lp2571
S'GCGCCCCD'
p2572
aS'GCGCCCCD'
p2573
aa(lp2574
S'GCGCCCD'
p2575
aS'GCGCCCD'
p2576
aa(lp2577
S'GCGCCCID'
p2578
aS'GCGCCCID'
p2579
aa(lp2580
S'GCGCCCIDD'
p2581
aS'GCGCCCIDD'
p2582
aa(lp2583
S'GCGCCD'
p2584
aS'GCGCCD'
p2585
aa(lp2586
S'GCGCCDD'
p2587
aS'GCGCCDD'
p2588
aa(lp2589
S'GCGCCDFD'
p2590
aS'GCGCCDFD'
p2591
aa(lp2592
S'GCGCCID'
p2593
aS'GCGCCID'
p2594
aa(lp2595
S'GCGCCJCD'
p2596
aS'GCGCCJCD'
p2597
aa(lp2598
S'GCGCCPD'
p2599
aS'GCGCCPD'
p2600
aa(lp2601
S'GCGCD'
p2602
aS'GCGCD'
p2603
aa(lp2604
S'GCGCDCCCD'
p2605
aS'GCGCDCCCD'
p2606
aa(lp2607
S'GCGCDCD'
p2608
aS'GCGCDCD'
p2609
aa(lp2610
S'GCGCDCID'
p2611
aS'GCGCDCID'
p2612
aa(lp2613
S'GCGCDD'
p2614
aS'GCGCDD'
p2615
aa(lp2616
S'GCGCFCCD'
p2617
aS'GCGCFCCD'
p2618
aa(lp2619
S'GCGCFCD'
p2620
aS'GCGCFCD'
p2621
aa(lp2622
S'GCGCFGCD'
p2623
aS'GCGCFGCD'
p2624
aa(lp2625
S'GCGCGCCD'
p2626
aS'GCGCGCCD'
p2627
aa(lp2628
S'GCGCGCD'
p2629
aS'GCGCGCD'
p2630
aa(lp2631
S'GCGCGCPCCD'
p2632
aS'GCGCGCPCCD'
p2633
aa(lp2634
S'GCGCGD'
p2635
aS'GCGCGD'
p2636
aa(lp2637
S'GCGCGID'
p2638
aS'GCGCGID'
p2639
aa(lp2640
S'GCGCGPD'
p2641
aS'GCGCGPD'
p2642
aa(lp2643
S'GCGCICCCD'
p2644
aS'GCGCICCCD'
p2645
aa(lp2646
S'GCGCICDDFCCCD'
p2647
aS'GCGCICDDFCCCD'
p2648
aa(lp2649
S'GCGCID'
p2650
aS'GCGCID'
p2651
aa(lp2652
S'GCGCIDD'
p2653
aS'GCGCIDD'
p2654
aa(lp2655
S'GCGCIID'
p2656
aS'GCGCIID'
p2657
aa(lp2658
S'GCGCJCCD'
p2659
aS'GCGCJCCD'
p2660
aa(lp2661
S'GCGCJD'
p2662
aS'GCGCJD'
p2663
aa(lp2664
S'GCGCJGWD'
p2665
aS'GCGCJGWD'
p2666
aa(lp2667
S'GCGCJJD'
p2668
aS'GCGCJJD'
p2669
aa(lp2670
S'GCGCLCCD'
p2671
aS'GCGCLCCD'
p2672
aa(lp2673
S'GCGCLD'
p2674
aS'GCGCLD'
p2675
aa(lp2676
S'GCGCPCCD'
p2677
aS'GCGCPCCD'
p2678
aa(lp2679
S'GCGCPCCID'
p2680
aS'GCGCPCCID'
p2681
aa(lp2682
S'GCGCPCD'
p2683
aS'GCGCPCD'
p2684
aa(lp2685
S'GCGCPCJCCD'
p2686
aS'GCGCPCJCCD'
p2687
aa(lp2688
S'GCGCPPCCD'
p2689
aS'GCGCPPCCD'
p2690
aa(lp2691
S'GCGD'
p2692
aS'GCGD'
p2693
aa(lp2694
S'GCGDCCICCD'
p2695
aS'GCGDCCICCD'
p2696
aa(lp2697
S'GCGDCD'
p2698
aS'GCGDCD'
p2699
aa(lp2700
S'GCGDD'
p2701
aS'GCGDD'
p2702
aa(lp2703
S'GCGDIMD'
p2704
aS'GCGDIMD'
p2705
aa(lp2706
S'GCGFCCD'
p2707
aS'GCGFCCD'
p2708
aa(lp2709
S'GCGFCD'
p2710
aS'GCGFCD'
p2711
aa(lp2712
S'GCGFCJD'
p2713
aS'GCGFCJD'
p2714
aa(lp2715
S'GCGFCMJD'
p2716
aS'GCGFCMJD'
p2717
aa(lp2718
S'GCGFD'
p2719
aS'GCGFD'
p2720
aa(lp2721
S'GCGFDD'
p2722
aS'GCGFDD'
p2723
aa(lp2724
S'GCGFFCD'
p2725
aS'GCGFFCD'
p2726
aa(lp2727
S'GCGFFD'
p2728
aS'GCGFFD'
p2729
aa(lp2730
S'GCGFID'
p2731
aS'GCGFID'
p2732
aa(lp2733
S'GCGFIDD'
p2734
aS'GCGFIDD'
p2735
aa(lp2736
S'GCGFJD'
p2737
aS'GCGFJD'
p2738
aa(lp2739
S'GCGGCCD'
p2740
aS'GCGGCCD'
p2741
aa(lp2742
S'GCGGCD'
p2743
aS'GCGGCD'
p2744
aa(lp2745
S'GCGGCGD'
p2746
aS'GCGGCGD'
p2747
aa(lp2748
S'GCGGD'
p2749
aS'GCGGD'
p2750
aa(lp2751
S'GCGGGJCD'
p2752
aS'GCGGGJCD'
p2753
aa(lp2754
S'GCGGJCID'
p2755
aS'GCGGJCID'
p2756
aa(lp2757
S'GCGGJCJD'
p2758
aS'GCGGJCJD'
p2759
aa(lp2760
S'GCGICCCD'
p2761
aS'GCGICCCD'
p2762
aa(lp2763
S'GCGICCD'
p2764
aS'GCGICCD'
p2765
aa(lp2766
S'GCGICCJD'
p2767
aS'GCGICCJD'
p2768
aa(lp2769
S'GCGICD'
p2770
aS'GCGICD'
p2771
aa(lp2772
S'GCGICDMD'
p2773
aS'GCGICDMD'
p2774
aa(lp2775
S'GCGICICCD'
p2776
aS'GCGICICCD'
p2777
aa(lp2778
S'GCGICJCDD'
p2779
aS'GCGICJCDD'
p2780
aa(lp2781
S'GCGICJD'
p2782
aS'GCGICJD'
p2783
aa(lp2784
S'GCGICJJD'
p2785
aS'GCGICJJD'
p2786
aa(lp2787
S'GCGID'
p2788
aS'GCGID'
p2789
aa(lp2790
S'GCGIDCGD'
p2791
aS'GCGIDCGD'
p2792
aa(lp2793
S'GCGIDD'
p2794
aS'GCGIDD'
p2795
aa(lp2796
S'GCGIDGD'
p2797
aS'GCGIDGD'
p2798
aa(lp2799
S'GCGIGCCD'
p2800
aS'GCGIGCCD'
p2801
aa(lp2802
S'GCGIICD'
p2803
aS'GCGIICD'
p2804
aa(lp2805
S'GCGIID'
p2806
aS'GCGIID'
p2807
aa(lp2808
S'GCGIMCCD'
p2809
aS'GCGIMCCD'
p2810
aa(lp2811
S'GCGIMJD'
p2812
aS'GCGIMJD'
p2813
aa(lp2814
S'GCGIPCCD'
p2815
aS'GCGIPCCD'
p2816
aa(lp2817
S'GCGIPD'
p2818
aS'GCGIPD'
p2819
aa(lp2820
S'GCGJCCCCDD'
p2821
aS'GCGJCCCCDD'
p2822
aa(lp2823
S'GCGJCCCD'
p2824
aS'GCGJCCCD'
p2825
aa(lp2826
S'GCGJCCD'
p2827
aS'GCGJCCD'
p2828
aa(lp2829
S'GCGJCCDD'
p2830
aS'GCGJCCDD'
p2831
aa(lp2832
S'GCGJCD'
p2833
aS'GCGJCD'
p2834
aa(lp2835
S'GCGJCID'
p2836
aS'GCGJCID'
p2837
aa(lp2838
S'GCGJD'
p2839
aS'GCGJD'
p2840
aa(lp2841
S'GCGJDD'
p2842
aS'GCGJDD'
p2843
aa(lp2844
S'GCGJGICD'
p2845
aS'GCGJGICD'
p2846
aa(lp2847
S'GCGJICD'
p2848
aS'GCGJICD'
p2849
aa(lp2850
S'GCGJID'
p2851
aS'GCGJID'
p2852
aa(lp2853
S'GCGJIFCD'
p2854
aS'GCGJIFCD'
p2855
aa(lp2856
S'GCGJJCD'
p2857
aS'GCGJJCD'
p2858
aa(lp2859
S'GCGJPCCD'
p2860
aS'GCGJPCCD'
p2861
aa(lp2862
S'GCGJPCD'
p2863
aS'GCGJPCD'
p2864
aa(lp2865
S'GCGKCD'
p2866
aS'GCGKCD'
p2867
aa(lp2868
S'GCGKD'
p2869
aS'GCGKD'
p2870
aa(lp2871
S'GCGLCDCCD'
p2872
aS'GCGLCDCCD'
p2873
aa(lp2874
S'GCGLCJD'
p2875
aS'GCGLCJD'
p2876
aa(lp2877
S'GCGLGCCD'
p2878
aS'GCGLGCCD'
p2879
aa(lp2880
S'GCGLGPCCID'
p2881
aS'GCGLGPCCID'
p2882
aa(lp2883
S'GCGLIPJD'
p2884
aS'GCGLIPJD'
p2885
aa(lp2886
S'GCGLJJID'
p2887
aS'GCGLJJID'
p2888
aa(lp2889
S'GCGMCD'
p2890
aS'GCGMCD'
p2891
aa(lp2892
S'GCGMD'
p2893
aS'GCGMD'
p2894
aa(lp2895
S'GCGPCCCCCD'
p2896
aS'GCGPCCCCCD'
p2897
aa(lp2898
S'GCGPCCCD'
p2899
aS'GCGPCCCD'
p2900
aa(lp2901
S'GCGPCCD'
p2902
aS'GCGPCCD'
p2903
aa(lp2904
S'GCGPCD'
p2905
aS'GCGPCD'
p2906
aa(lp2907
S'GCGPCFCCD'
p2908
aS'GCGPCFCCD'
p2909
aa(lp2910
S'GCGPCID'
p2911
aS'GCGPCID'
p2912
aa(lp2913
S'GCGPCPD'
p2914
aS'GCGPCPD'
p2915
aa(lp2916
S'GCGPD'
p2917
aS'GCGPD'
p2918
aa(lp2919
S'GCGPFCD'
p2920
aS'GCGPFCD'
p2921
aa(lp2922
S'GCGPGCD'
p2923
aS'GCGPGCD'
p2924
aa(lp2925
S'GCGPIID'
p2926
aS'GCGPIID'
p2927
aa(lp2928
S'GCGPJCCD'
p2929
aS'GCGPJCCD'
p2930
aa(lp2931
S'GCGPJCD'
p2932
aS'GCGPJCD'
p2933
aa(lp2934
S'GCGPJD'
p2935
aS'GCGPJD'
p2936
aa(lp2937
S'GCGPJGCD'
p2938
aS'GCGPJGCD'
p2939
aa(lp2940
S'GCGPJID'
p2941
aS'GCGPJID'
p2942
aa(lp2943
S'GCGPLICD'
p2944
aS'GCGPLICD'
p2945
aa(lp2946
S'GCGPLID'
p2947
aS'GCGPLID'
p2948
aa(lp2949
S'GCGPPCCD'
p2950
aS'GCGPPCCD'
p2951
aa(lp2952
S'GCGPPCD'
p2953
aS'GCGPPCD'
p2954
aa(lp2955
S'GCGPPD'
p2956
aS'GCGPPD'
p2957
aa(lp2958
S'GCGPPID'
p2959
aS'GCGPPID'
p2960
aa(lp2961
S'GCGPPJD'
p2962
aS'GCGPPJD'
p2963
aa(lp2964
S'GCGWPFCD'
p2965
aS'GCGWPFCD'
p2966
aa(lp2967
S'GCICCCCD'
p2968
aS'GCICCCCD'
p2969
aa(lp2970
S'GCICCCD'
p2971
aS'GCICCCD'
p2972
aa(lp2973
S'GCICCCDD'
p2974
aS'GCICCCDD'
p2975
aa(lp2976
S'GCICCD'
p2977
aS'GCICCD'
p2978
aa(lp2979
S'GCICCDFD'
p2980
aS'GCICCDFD'
p2981
aa(lp2982
S'GCICCJD'
p2983
aS'GCICCJD'
p2984
aa(lp2985
S'GCICCWDWDCGD'
p2986
aS'GCICCWDWDCGD'
p2987
aa(lp2988
S'GCICD'
p2989
aS'GCICD'
p2990
aa(lp2991
S'GCICDD'
p2992
aS'GCICDD'
p2993
aa(lp2994
S'GCICDFCD'
p2995
aS'GCICDFCD'
p2996
aa(lp2997
S'GCICPD'
p2998
aS'GCICPD'
p2999
aa(lp3000
S'GCID'
p3001
aS'GCID'
p3002
aa(lp3003
S'GCIDCD'
p3004
aS'GCIDCD'
p3005
aa(lp3006
S'GCIDCGD'
p3007
aS'GCIDCGD'
p3008
aa(lp3009
S'GCIDD'
p3010
aS'GCIDD'
p3011
aa(lp3012
S'GCIDDGD'
p3013
aS'GCIDDGD'
p3014
aa(lp3015
S'GCIDID'
p3016
aS'GCIDID'
p3017
aa(lp3018
S'GCIDPCCD'
p3019
aS'GCIDPCCD'
p3020
aa(lp3021
S'GCIFCCD'
p3022
aS'GCIFCCD'
p3023
aa(lp3024
S'GCIICD'
p3025
aS'GCIICD'
p3026
aa(lp3027
S'GCIID'
p3028
aS'GCIID'
p3029
aa(lp3030
S'GCIJCCD'
p3031
aS'GCIJCCD'
p3032
aa(lp3033
S'GCIJCCDMD'
p3034
aS'GCIJCCDMD'
p3035
aa(lp3036
S'GCIJCD'
p3037
aS'GCIJCD'
p3038
aa(lp3039
S'GCIJCID'
p3040
aS'GCIJCID'
p3041
aa(lp3042
S'GCIJD'
p3043
aS'GCIJD'
p3044
aa(lp3045
S'GCIJICD'
p3046
aS'GCIJICD'
p3047
aa(lp3048
S'GCIKD'
p3049
aS'GCIKD'
p3050
aa(lp3051
S'GCIPCCD'
p3052
aS'GCIPCCD'
p3053
aa(lp3054
S'GCIPCD'
p3055
aS'GCIPCD'
p3056
aa(lp3057
S'GCIPCPD'
p3058
aS'GCIPCPD'
p3059
aa(lp3060
S'GCIPD'
p3061
aS'GCIPD'
p3062
aa(lp3063
S'GCIWGIIWD'
p3064
aS'GCIWGIIWD'
p3065
aa(lp3066
S'GCJCCCCCD'
p3067
aS'GCJCCCCCD'
p3068
aa(lp3069
S'GCJCCCCD'
p3070
aS'GCJCCCCD'
p3071
aa(lp3072
S'GCJCCCD'
p3073
aS'GCJCCCD'
p3074
aa(lp3075
S'GCJCCD'
p3076
aS'GCJCCD'
p3077
aa(lp3078
S'GCJCCDCD'
p3079
aS'GCJCCDCD'
p3080
aa(lp3081
S'GCJCCDGD'
p3082
aS'GCJCCDGD'
p3083
aa(lp3084
S'GCJCCDMD'
p3085
aS'GCJCCDMD'
p3086
aa(lp3087
S'GCJCCICD'
p3088
aS'GCJCCICD'
p3089
aa(lp3090
S'GCJCD'
p3091
aS'GCJCD'
p3092
aa(lp3093
S'GCJCDD'
p3094
aS'GCJCDD'
p3095
aa(lp3096
S'GCJCGD'
p3097
aS'GCJCGD'
p3098
aa(lp3099
S'GCJCICD'
p3100
aS'GCJCICD'
p3101
aa(lp3102
S'GCJCID'
p3103
aS'GCJCID'
p3104
aa(lp3105
S'GCJCIID'
p3106
aS'GCJCIID'
p3107
aa(lp3108
S'GCJCKDD'
p3109
aS'GCJCKDD'
p3110
aa(lp3111
S'GCJCPD'
p3112
aS'GCJCPD'
p3113
aa(lp3114
S'GCJD'
p3115
aS'GCJD'
p3116
aa(lp3117
S'GCJDCCD'
p3118
aS'GCJDCCD'
p3119
aa(lp3120
S'GCJDCD'
p3121
aS'GCJDCD'
p3122
aa(lp3123
S'GCJDCDCD'
p3124
aS'GCJDCDCD'
p3125
aa(lp3126
S'GCJDD'
p3127
aS'GCJDD'
p3128
aa(lp3129
S'GCJDDCD'
p3130
aS'GCJDDCD'
p3131
aa(lp3132
S'GCJDID'
p3133
aS'GCJDID'
p3134
aa(lp3135
S'GCJFD'
p3136
aS'GCJFD'
p3137
aa(lp3138
S'GCJGCD'
p3139
aS'GCJGCD'
p3140
aa(lp3141
S'GCJGD'
p3142
aS'GCJGD'
p3143
aa(lp3144
S'GCJICCCD'
p3145
aS'GCJICCCD'
p3146
aa(lp3147
S'GCJICD'
p3148
aS'GCJICD'
p3149
aa(lp3150
S'GCJICGD'
p3151
aS'GCJICGD'
p3152
aa(lp3153
S'GCJID'
p3154
aS'GCJID'
p3155
aa(lp3156
S'GCJIDCD'
p3157
aS'GCJIDCD'
p3158
aa(lp3159
S'GCJIDD'
p3160
aS'GCJIDD'
p3161
aa(lp3162
S'GCJJCCD'
p3163
aS'GCJJCCD'
p3164
aa(lp3165
S'GCJJCD'
p3166
aS'GCJJCD'
p3167
aa(lp3168
S'GCJJCDD'
p3169
aS'GCJJCDD'
p3170
aa(lp3171
S'GCJJCJCD'
p3172
aS'GCJJCJCD'
p3173
aa(lp3174
S'GCJJD'
p3175
aS'GCJJD'
p3176
aa(lp3177
S'GCJJDD'
p3178
aS'GCJJDD'
p3179
aa(lp3180
S'GCJJGD'
p3181
aS'GCJJGD'
p3182
aa(lp3183
S'GCJKCD'
p3184
aS'GCJKCD'
p3185
aa(lp3186
S'GCJLCCD'
p3187
aS'GCJLCCD'
p3188
aa(lp3189
S'GCJMCID'
p3190
aS'GCJMCID'
p3191
aa(lp3192
S'GCJMD'
p3193
aS'GCJMD'
p3194
aa(lp3195
S'GCJPCCCD'
p3196
aS'GCJPCCCD'
p3197
aa(lp3198
S'GCJPCCD'
p3199
aS'GCJPCCD'
p3200
aa(lp3201
S'GCJPCCGJLFD'
p3202
aS'GCJPCCGJLFD'
p3203
aa(lp3204
S'GCJPCD'
p3205
aS'GCJPCD'
p3206
aa(lp3207
S'GCJPCDMD'
p3208
aS'GCJPCDMD'
p3209
aa(lp3210
S'GCJPD'
p3211
aS'GCJPD'
p3212
aa(lp3213
S'GCJPID'
p3214
aS'GCJPID'
p3215
aa(lp3216
S'GCJPJD'
p3217
aS'GCJPJD'
p3218
aa(lp3219
S'GCJWCCJCD'
p3220
aS'GCJWCCJCD'
p3221
aa(lp3222
S'GCJWCPWD'
p3223
aS'GCJWCPWD'
p3224
aa(lp3225
S'GCKCCCD'
p3226
aS'GCKCCCD'
p3227
aa(lp3228
S'GCKCCD'
p3229
aS'GCKCCD'
p3230
aa(lp3231
S'GCKCD'
p3232
aS'GCKCD'
p3233
aa(lp3234
S'GCKD'
p3235
aS'GCKD'
p3236
aa(lp3237
S'GCKDGD'
p3238
aS'GCKDGD'
p3239
aa(lp3240
S'GCKGD'
p3241
aS'GCKGD'
p3242
aa(lp3243
S'GCKICD'
p3244
aS'GCKICD'
p3245
aa(lp3246
S'GCKJCCD'
p3247
aS'GCKJCCD'
p3248
aa(lp3249
S'GCKPD'
p3250
aS'GCKPD'
p3251
aa(lp3252
S'GCLCCCD'
p3253
aS'GCLCCCD'
p3254
aa(lp3255
S'GCLCCD'
p3256
aS'GCLCCD'
p3257
aa(lp3258
S'GCLCD'
p3259
aS'GCLCD'
p3260
aa(lp3261
S'GCLCID'
p3262
aS'GCLCID'
p3263
aa(lp3264
S'GCLD'
p3265
aS'GCLD'
p3266
aa(lp3267
S'GCLDD'
p3268
aS'GCLDD'
p3269
aa(lp3270
S'GCLGGCD'
p3271
aS'GCLGGCD'
p3272
aa(lp3273
S'GCLGIJCD'
p3274
aS'GCLGIJCD'
p3275
aa(lp3276
S'GCLID'
p3277
aS'GCLID'
p3278
aa(lp3279
S'GCMCCD'
p3280
aS'GCMCCD'
p3281
aa(lp3282
S'GCMCCDFD'
p3283
aS'GCMCCDFD'
p3284
aa(lp3285
S'GCMCCKGD'
p3286
aS'GCMCCKGD'
p3287
aa(lp3288
S'GCMCD'
p3289
aS'GCMCD'
p3290
aa(lp3291
S'GCMCJCCD'
p3292
aS'GCMCJCCD'
p3293
aa(lp3294
S'GCMCPD'
p3295
aS'GCMCPD'
p3296
aa(lp3297
S'GCMD'
p3298
aS'GCMD'
p3299
aa(lp3300
S'GCMDCGCD'
p3301
aS'GCMDCGCD'
p3302
aa(lp3303
S'GCMDD'
p3304
aS'GCMDD'
p3305
aa(lp3306
S'GCMFCDGD'
p3307
aS'GCMFCDGD'
p3308
aa(lp3309
S'GCMID'
p3310
aS'GCMID'
p3311
aa(lp3312
S'GCMJCD'
p3313
aS'GCMJCD'
p3314
aa(lp3315
S'GCMJCDD'
p3316
aS'GCMJCDD'
p3317
aa(lp3318
S'GCMJCID'
p3319
aS'GCMJCID'
p3320
aa(lp3321
S'GCMJID'
p3322
aS'GCMJID'
p3323
aa(lp3324
S'GCMJPCCCCD'
p3325
aS'GCMJPCCCCD'
p3326
aa(lp3327
S'GCMKD'
p3328
aS'GCMKD'
p3329
aa(lp3330
S'GCMKGD'
p3331
aS'GCMKGD'
p3332
aa(lp3333
S'GCMPCCD'
p3334
aS'GCMPCCD'
p3335
aa(lp3336
S'GCMPCD'
p3337
aS'GCMPCD'
p3338
aa(lp3339
S'GCMPJD'
p3340
aS'GCMPJD'
p3341
aa(lp3342
S'GCMPMD'
p3343
aS'GCMPMD'
p3344
aa(lp3345
S'GCMPPCCD'
p3346
aS'GCMPPCCD'
p3347
aa(lp3348
S'GCPCCCCD'
p3349
aS'GCPCCCCD'
p3350
aa(lp3351
S'GCPCCCD'
p3352
aS'GCPCCCD'
p3353
aa(lp3354
S'GCPCCCMD'
p3355
aS'GCPCCCMD'
p3356
aa(lp3357
S'GCPCCD'
p3358
aS'GCPCCD'
p3359
aa(lp3360
S'GCPCCDCD'
p3361
aS'GCPCCDCD'
p3362
aa(lp3363
S'GCPCCDD'
p3364
aS'GCPCCDD'
p3365
aa(lp3366
S'GCPCCDMD'
p3367
aS'GCPCCDMD'
p3368
aa(lp3369
S'GCPCCDWD'
p3370
aS'GCPCCDWD'
p3371
aa(lp3372
S'GCPCCWGCWD'
p3373
aS'GCPCCWGCWD'
p3374
aa(lp3375
S'GCPCD'
p3376
aS'GCPCD'
p3377
aa(lp3378
S'GCPCDCD'
p3379
aS'GCPCDCD'
p3380
aa(lp3381
S'GCPCDD'
p3382
aS'GCPCDD'
p3383
aa(lp3384
S'GCPCDGD'
p3385
aS'GCPCDGD'
p3386
aa(lp3387
S'GCPCDWD'
p3388
aS'GCPCDWD'
p3389
aa(lp3390
S'GCPCICDWGD'
p3391
aS'GCPCICDWGD'
p3392
aa(lp3393
S'GCPCIICFD'
p3394
aS'GCPCIICFD'
p3395
aa(lp3396
S'GCPCJCFD'
p3397
aS'GCPCJCFD'
p3398
aa(lp3399
S'GCPCJD'
p3400
aS'GCPCJD'
p3401
aa(lp3402
S'GCPCKCD'
p3403
aS'GCPCKCD'
p3404
aa(lp3405
S'GCPD'
p3406
aS'GCPD'
p3407
aa(lp3408
S'GCPDCCD'
p3409
aS'GCPDCCD'
p3410
aa(lp3411
S'GCPDD'
p3412
aS'GCPDD'
p3413
aa(lp3414
S'GCPDGD'
p3415
aS'GCPDGD'
p3416
aa(lp3417
S'GCPFD'
p3418
aS'GCPFD'
p3419
aa(lp3420
S'GCPGGCD'
p3421
aS'GCPGGCD'
p3422
aa(lp3423
S'GCPICCCD'
p3424
aS'GCPICCCD'
p3425
aa(lp3426
S'GCPICCCDGD'
p3427
aS'GCPICCCDGD'
p3428
aa(lp3429
S'GCPICCD'
p3430
aS'GCPICCD'
p3431
aa(lp3432
S'GCPICD'
p3433
aS'GCPICD'
p3434
aa(lp3435
S'GCPICID'
p3436
aS'GCPICID'
p3437
aa(lp3438
S'GCPID'
p3439
aS'GCPID'
p3440
aa(lp3441
S'GCPIJCCD'
p3442
aS'GCPIJCCD'
p3443
aa(lp3444
S'GCPJCCD'
p3445
aS'GCPJCCD'
p3446
aa(lp3447
S'GCPJCD'
p3448
aS'GCPJCD'
p3449
aa(lp3450
S'GCPJCDD'
p3451
aS'GCPJCDD'
p3452
aa(lp3453
S'GCPJD'
p3454
aS'GCPJD'
p3455
aa(lp3456
S'GCPJDCD'
p3457
aS'GCPJDCD'
p3458
aa(lp3459
S'GCPJJCD'
p3460
aS'GCPJJCD'
p3461
aa(lp3462
S'GCPJJDD'
p3463
aS'GCPJJDD'
p3464
aa(lp3465
S'GCPJPD'
p3466
aS'GCPJPD'
p3467
aa(lp3468
S'GCPJPDD'
p3469
aS'GCPJPDD'
p3470
aa(lp3471
S'GCPKD'
p3472
aS'GCPKD'
p3473
aa(lp3474
S'GCPMCCD'
p3475
aS'GCPMCCD'
p3476
aa(lp3477
S'GCPMJCD'
p3478
aS'GCPMJCD'
p3479
aa(lp3480
S'GCPPCCD'
p3481
aS'GCPPCCD'
p3482
aa(lp3483
S'GCPPCD'
p3484
aS'GCPPCD'
p3485
aa(lp3486
S'GCPPD'
p3487
aS'GCPPD'
p3488
aa(lp3489
S'GCPPID'
p3490
aS'GCPPID'
p3491
aa(lp3492
S'GCPPPD'
p3493
aS'GCPPPD'
p3494
aa(lp3495
S'GCPPWCWID'
p3496
aS'GCPPWCWID'
p3497
aa(lp3498
S'GCPWCWCD'
p3499
aS'GCPWCWCD'
p3500
aa(lp3501
S'GCPWDWDCCD'
p3502
aS'GCPWDWDCCD'
p3503
aa(lp3504
S'GCWCWCJD'
p3505
aS'GCWCWCJD'
p3506
aa(lp3507
S'GCWCWD'
p3508
aS'GCWCWD'
p3509
aa(lp3510
S'GCWDWCDD'
p3511
aS'GCWDWCDD'
p3512
aa(lp3513
S'GCWDWD'
p3514
aS'GCWDWD'
p3515
aa(lp3516
S'GCWDWDCCD'
p3517
aS'GCWDWDCCD'
p3518
aa(lp3519
S'GCWGWCCD'
p3520
aS'GCWGWCCD'
p3521
aa(lp3522
S'GCWGWD'
p3523
aS'GCWGWD'
p3524
aa(lp3525
S'GCWGWDD'
p3526
aS'GCWGWDD'
p3527
aa(lp3528
S'GCWGWJD'
p3529
aS'GCWGWJD'
p3530
aa(lp3531
S'GCWJCCD'
p3532
aS'GCWJCCD'
p3533
aa(lp3534
S'GD'
p3535
aS'GD'
p3536
aa(lp3537
S'GDCCCCCCD'
p3538
aS'GDCCCCCCD'
p3539
aa(lp3540
S'GDCCCCCD'
p3541
aS'GDCCCCCD'
p3542
aa(lp3543
S'GDCCCCD'
p3544
aS'GDCCCCD'
p3545
aa(lp3546
S'GDCCCCFCD'
p3547
aS'GDCCCCFCD'
p3548
aa(lp3549
S'GDCCCCPD'
p3550
aS'GDCCCCPD'
p3551
aa(lp3552
S'GDCCCD'
p3553
aS'GDCCCD'
p3554
aa(lp3555
S'GDCCCDD'
p3556
aS'GDCCCDD'
p3557
aa(lp3558
S'GDCCCFCPD'
p3559
aS'GDCCCFCPD'
p3560
aa(lp3561
S'GDCCCGCCD'
p3562
aS'GDCCCGCCD'
p3563
aa(lp3564
S'GDCCCJCD'
p3565
aS'GDCCCJCD'
p3566
aa(lp3567
S'GDCCCJD'
p3568
aS'GDCCCJD'
p3569
aa(lp3570
S'GDCCCJDCD'
p3571
aS'GDCCCJDCD'
p3572
aa(lp3573
S'GDCCD'
p3574
aS'GDCCD'
p3575
aa(lp3576
S'GDCCDCD'
p3577
aS'GDCCDCD'
p3578
aa(lp3579
S'GDCCDCDD'
p3580
aS'GDCCDCDD'
p3581
aa(lp3582
S'GDCCDD'
p3583
aS'GDCCDD'
p3584
aa(lp3585
S'GDCCID'
p3586
aS'GDCCID'
p3587
aa(lp3588
S'GDCCJD'
p3589
aS'GDCCJD'
p3590
aa(lp3591
S'GDCCPCCD'
p3592
aS'GDCCPCCD'
p3593
aa(lp3594
S'GDCCPCD'
p3595
aS'GDCCPCD'
p3596
aa(lp3597
S'GDCD'
p3598
aS'GDCD'
p3599
aa(lp3600
S'GDCDCCD'
p3601
aS'GDCDCCD'
p3602
aa(lp3603
S'GDCDCD'
p3604
aS'GDCDCD'
p3605
aa(lp3606
S'GDCDD'
p3607
aS'GDCDD'
p3608
aa(lp3609
S'GDCDGCD'
p3610
aS'GDCDGCD'
p3611
aa(lp3612
S'GDCDICD'
p3613
aS'GDCDICD'
p3614
aa(lp3615
S'GDCDJD'
p3616
aS'GDCDJD'
p3617
aa(lp3618
S'GDCDPD'
p3619
aS'GDCDPD'
p3620
aa(lp3621
S'GDCFD'
p3622
aS'GDCFD'
p3623
aa(lp3624
S'GDCGCCD'
p3625
aS'GDCGCCD'
p3626
aa(lp3627
S'GDCGD'
p3628
aS'GDCGD'
p3629
aa(lp3630
S'GDCGPPCCD'
p3631
aS'GDCGPPCCD'
p3632
aa(lp3633
S'GDCID'
p3634
aS'GDCID'
p3635
aa(lp3636
S'GDCIDD'
p3637
aS'GDCIDD'
p3638
aa(lp3639
S'GDCJCCD'
p3640
aS'GDCJCCD'
p3641
aa(lp3642
S'GDCJD'
p3643
aS'GDCJD'
p3644
aa(lp3645
S'GDCKGCD'
p3646
aS'GDCKGCD'
p3647
aa(lp3648
S'GDCLD'
p3649
aS'GDCLD'
p3650
aa(lp3651
S'GDCMD'
p3652
aS'GDCMD'
p3653
aa(lp3654
S'GDCPD'
p3655
aS'GDCPD'
p3656
aa(lp3657
S'GDCPID'
p3658
aS'GDCPID'
p3659
aa(lp3660
S'GDCPJD'
p3661
aS'GDCPJD'
p3662
aa(lp3663
S'GDD'
p3664
aS'GDD'
p3665
aa(lp3666
S'GDDCCCCD'
p3667
aS'GDDCCCCD'
p3668
aa(lp3669
S'GDDCCCD'
p3670
aS'GDDCCCD'
p3671
aa(lp3672
S'GDDCCD'
p3673
aS'GDDCCD'
p3674
aa(lp3675
S'GDDCD'
p3676
aS'GDDCD'
p3677
aa(lp3678
S'GDDCDD'
p3679
aS'GDDCDD'
p3680
aa(lp3681
S'GDDCFD'
p3682
aS'GDDCFD'
p3683
aa(lp3684
S'GDDCFDCD'
p3685
aS'GDDCFDCD'
p3686
aa(lp3687
S'GDDCMD'
p3688
aS'GDDCMD'
p3689
aa(lp3690
S'GDDD'
p3691
aS'GDDD'
p3692
aa(lp3693
S'GDDDCD'
p3694
aS'GDDDCD'
p3695
aa(lp3696
S'GDDGCD'
p3697
aS'GDDGCD'
p3698
aa(lp3699
S'GDDGD'
p3700
aS'GDDGD'
p3701
aa(lp3702
S'GDDID'
p3703
aS'GDDID'
p3704
aa(lp3705
S'GDDMD'
p3706
aS'GDDMD'
p3707
aa(lp3708
S'GDDPPD'
p3709
aS'GDDPPD'
p3710
aa(lp3711
S'GDDPPLD'
p3712
aS'GDDPPLD'
p3713
aa(lp3714
S'GDFCCD'
p3715
aS'GDFCCD'
p3716
aa(lp3717
S'GDFCD'
p3718
aS'GDFCD'
p3719
aa(lp3720
S'GDFD'
p3721
aS'GDFD'
p3722
aa(lp3723
S'GDFFD'
p3724
aS'GDFFD'
p3725
aa(lp3726
S'GDFGD'
p3727
aS'GDFGD'
p3728
aa(lp3729
S'GDGCCCD'
p3730
aS'GDGCCCD'
p3731
aa(lp3732
S'GDGCCD'
p3733
aS'GDGCCD'
p3734
aa(lp3735
S'GDGCD'
p3736
aS'GDGCD'
p3737
aa(lp3738
S'GDGD'
p3739
aS'GDGD'
p3740
aa(lp3741
S'GDGDCD'
p3742
aS'GDGDCD'
p3743
aa(lp3744
S'GDGDD'
p3745
aS'GDGDD'
p3746
aa(lp3747
S'GDGDFID'
p3748
aS'GDGDFID'
p3749
aa(lp3750
S'GDGJCCD'
p3751
aS'GDGJCCD'
p3752
aa(lp3753
S'GDGMD'
p3754
aS'GDGMD'
p3755
aa(lp3756
S'GDICCCD'
p3757
aS'GDICCCD'
p3758
aa(lp3759
S'GDICCD'
p3760
aS'GDICCD'
p3761
aa(lp3762
S'GDICD'
p3763
aS'GDICD'
p3764
aa(lp3765
S'GDID'
p3766
aS'GDID'
p3767
aa(lp3768
S'GDIDCD'
p3769
aS'GDIDCD'
p3770
aa(lp3771
S'GDIDD'
p3772
aS'GDIDD'
p3773
aa(lp3774
S'GDIGCD'
p3775
aS'GDIGCD'
p3776
aa(lp3777
S'GDIID'
p3778
aS'GDIID'
p3779
aa(lp3780
S'GDIPCD'
p3781
aS'GDIPCD'
p3782
aa(lp3783
S'GDIPD'
p3784
aS'GDIPD'
p3785
aa(lp3786
S'GDJCCCD'
p3787
aS'GDJCCCD'
p3788
aa(lp3789
S'GDJCCD'
p3790
aS'GDJCCD'
p3791
aa(lp3792
S'GDJCD'
p3793
aS'GDJCD'
p3794
aa(lp3795
S'GDJCICD'
p3796
aS'GDJCICD'
p3797
aa(lp3798
S'GDJD'
p3799
aS'GDJD'
p3800
aa(lp3801
S'GDJICD'
p3802
aS'GDJICD'
p3803
aa(lp3804
S'GDJJD'
p3805
aS'GDJJD'
p3806
aa(lp3807
S'GDJJJD'
p3808
aS'GDJJJD'
p3809
aa(lp3810
S'GDJPCD'
p3811
aS'GDJPCD'
p3812
aa(lp3813
S'GDJPDD'
p3814
aS'GDJPDD'
p3815
aa(lp3816
S'GDLCCCCCD'
p3817
aS'GDLCCCCCD'
p3818
aa(lp3819
S'GDLCCD'
p3820
aS'GDLCCD'
p3821
aa(lp3822
S'GDLCID'
p3823
aS'GDLCID'
p3824
aa(lp3825
S'GDLD'
p3826
aS'GDLD'
p3827
aa(lp3828
S'GDLJD'
p3829
aS'GDLJD'
p3830
aa(lp3831
S'GDLJDD'
p3832
aS'GDLJDD'
p3833
aa(lp3834
S'GDMCD'
p3835
aS'GDMCD'
p3836
aa(lp3837
S'GDMD'
p3838
aS'GDMD'
p3839
aa(lp3840
S'GDMDCD'
p3841
aS'GDMDCD'
p3842
aa(lp3843
S'GDMDD'
p3844
aS'GDMDD'
p3845
aa(lp3846
S'GDMJD'
p3847
aS'GDMJD'
p3848
aa(lp3849
S'GDMJMMD'
p3850
aS'GDMJMMD'
p3851
aa(lp3852
S'GDMPD'
p3853
aS'GDMPD'
p3854
aa(lp3855
S'GDPCCCCCD'
p3856
aS'GDPCCCCCD'
p3857
aa(lp3858
S'GDPCCD'
p3859
aS'GDPCCD'
p3860
aa(lp3861
S'GDPCD'
p3862
aS'GDPCD'
p3863
aa(lp3864
S'GDPD'
p3865
aS'GDPD'
p3866
aa(lp3867
S'GDPGCD'
p3868
aS'GDPGCD'
p3869
aa(lp3870
S'GDPID'
p3871
aS'GDPID'
p3872
aa(lp3873
S'GDPJCD'
p3874
aS'GDPJCD'
p3875
aa(lp3876
S'GDPJD'
p3877
aS'GDPJD'
p3878
aa(lp3879
S'GDPPD'
p3880
aS'GDPPD'
p3881
aa(lp3882
S'GDPPJD'
p3883
aS'GDPPJD'
p3884
aa(lp3885
S'GDWDWCCD'
p3886
aS'GDWDWCCD'
p3887
aa(lp3888
S'GDWDWCCDD'
p3889
aS'GDWDWCCDD'
p3890
aa(lp3891
S'GDWDWD'
p3892
aS'GDWDWD'
p3893
aa(lp3894
S'GDWFWD'
p3895
aS'GDWFWD'
p3896
aa(lp3897
S'GDWGWD'
p3898
aS'GDWGWD'
p3899
aa(lp3900
S'GFCCCCCCD'
p3901
aS'GFCCCCCCD'
p3902
aa(lp3903
S'GFCCCCCD'
p3904
aS'GFCCCCCD'
p3905
aa(lp3906
S'GFCCCCD'
p3907
aS'GFCCCCD'
p3908
aa(lp3909
S'GFCCCCFD'
p3910
aS'GFCCCCFD'
p3911
aa(lp3912
S'GFCCCCJD'
p3913
aS'GFCCCCJD'
p3914
aa(lp3915
S'GFCCCD'
p3916
aS'GFCCCD'
p3917
aa(lp3918
S'GFCCCDD'
p3919
aS'GFCCCDD'
p3920
aa(lp3921
S'GFCCCDDD'
p3922
aS'GFCCCDDD'
p3923
aa(lp3924
S'GFCCCDFCD'
p3925
aS'GFCCCDFCD'
p3926
aa(lp3927
S'GFCCCDFDD'
p3928
aS'GFCCCDFDD'
p3929
aa(lp3930
S'GFCCCDGCD'
p3931
aS'GFCCCDGCD'
p3932
aa(lp3933
S'GFCCCDGD'
p3934
aS'GFCCCDGD'
p3935
aa(lp3936
S'GFCCCDID'
p3937
aS'GFCCCDID'
p3938
aa(lp3939
S'GFCCCID'
p3940
aS'GFCCCID'
p3941
aa(lp3942
S'GFCCD'
p3943
aS'GFCCD'
p3944
aa(lp3945
S'GFCCDCCD'
p3946
aS'GFCCDCCD'
p3947
aa(lp3948
S'GFCCDCD'
p3949
aS'GFCCDCD'
p3950
aa(lp3951
S'GFCCDCFD'
p3952
aS'GFCCDCFD'
p3953
aa(lp3954
S'GFCCDD'
p3955
aS'GFCCDD'
p3956
aa(lp3957
S'GFCCDDD'
p3958
aS'GFCCDDD'
p3959
aa(lp3960
S'GFCCDFCD'
p3961
aS'GFCCDFCD'
p3962
aa(lp3963
S'GFCCDFDMD'
p3964
aS'GFCCDFDMD'
p3965
aa(lp3966
S'GFCCDFFCD'
p3967
aS'GFCCDFFCD'
p3968
aa(lp3969
S'GFCCDFFD'
p3970
aS'GFCCDFFD'
p3971
aa(lp3972
S'GFCCDFGD'
p3973
aS'GFCCDFGD'
p3974
aa(lp3975
S'GFCCDGCCD'
p3976
aS'GFCCDGCCD'
p3977
aa(lp3978
S'GFCCDGCD'
p3979
aS'GFCCDGCD'
p3980
aa(lp3981
S'GFCCDGD'
p3982
aS'GFCCDGD'
p3983
aa(lp3984
S'GFCCDGGID'
p3985
aS'GFCCDGGID'
p3986
aa(lp3987
S'GFCCDGICDJICD'
p3988
aS'GFCCDGICDJICD'
p3989
aa(lp3990
S'GFCCDID'
p3991
aS'GFCCDID'
p3992
aa(lp3993
S'GFCCDLD'
p3994
aS'GFCCDLD'
p3995
aa(lp3996
S'GFCCDMD'
p3997
aS'GFCCDMD'
p3998
aa(lp3999
S'GFCCDWCD'
p4000
aS'GFCCDWCD'
p4001
aa(lp4002
S'GFCCDWD'
p4003
aS'GFCCDWD'
p4004
aa(lp4005
S'GFCCDWFDD'
p4006
aS'GFCCDWFDD'
p4007
aa(lp4008
S'GFCCDWGCD'
p4009
aS'GFCCDWGCD'
p4010
aa(lp4011
S'GFCCDWGD'
p4012
aS'GFCCDWGD'
p4013
aa(lp4014
S'GFCCFCD'
p4015
aS'GFCCFCD'
p4016
aa(lp4017
S'GFCCID'
p4018
aS'GFCCID'
p4019
aa(lp4020
S'GFCCJD'
p4021
aS'GFCCJD'
p4022
aa(lp4023
S'GFCCPCD'
p4024
aS'GFCCPCD'
p4025
aa(lp4026
S'GFCCPD'
p4027
aS'GFCCPD'
p4028
aa(lp4029
S'GFCCPGD'
p4030
aS'GFCCPGD'
p4031
aa(lp4032
S'GFCD'
p4033
aS'GFCD'
p4034
aa(lp4035
S'GFCDCD'
p4036
aS'GFCDCD'
p4037
aa(lp4038
S'GFCDD'
p4039
aS'GFCDD'
p4040
aa(lp4041
S'GFCDDCCCD'
p4042
aS'GFCDDCCCD'
p4043
aa(lp4044
S'GFCDFCCD'
p4045
aS'GFCDFCCD'
p4046
aa(lp4047
S'GFCDFCD'
p4048
aS'GFCDFCD'
p4049
aa(lp4050
S'GFCDGCD'
p4051
aS'GFCDGCD'
p4052
aa(lp4053
S'GFCDGD'
p4054
aS'GFCDGD'
p4055
aa(lp4056
S'GFCDGDD'
p4057
aS'GFCDGDD'
p4058
aa(lp4059
S'GFCDGFCD'
p4060
aS'GFCDGFCD'
p4061
aa(lp4062
S'GFCDGGCD'
p4063
aS'GFCDGGCD'
p4064
aa(lp4065
S'GFCDGGD'
p4066
aS'GFCDGGD'
p4067
aa(lp4068
S'GFCDGPD'
p4069
aS'GFCDGPD'
p4070
aa(lp4071
S'GFCDID'
p4072
aS'GFCDID'
p4073
aa(lp4074
S'GFCDMIDMD'
p4075
aS'GFCDMIDMD'
p4076
aa(lp4077
S'GFCDWCD'
p4078
aS'GFCDWCD'
p4079
aa(lp4080
S'GFCDWD'
p4081
aS'GFCDWD'
p4082
aa(lp4083
S'GFCDWGD'
p4084
aS'GFCDWGD'
p4085
aa(lp4086
S'GFCFCD'
p4087
aS'GFCFCD'
p4088
aa(lp4089
S'GFCGCD'
p4090
aS'GFCGCD'
p4091
aa(lp4092
S'GFCGD'
p4093
aS'GFCGD'
p4094
aa(lp4095
S'GFCICD'
p4096
aS'GFCICD'
p4097
aa(lp4098
S'GFCID'
p4099
aS'GFCID'
p4100
aa(lp4101
S'GFCIDCGD'
p4102
aS'GFCIDCGD'
p4103
aa(lp4104
S'GFCIDWD'
p4105
aS'GFCIDWD'
p4106
aa(lp4107
S'GFCJCCCD'
p4108
aS'GFCJCCCD'
p4109
aa(lp4110
S'GFCJCCD'
p4111
aS'GFCJCCD'
p4112
aa(lp4113
S'GFCJCCDD'
p4114
aS'GFCJCCDD'
p4115
aa(lp4116
S'GFCJCD'
p4117
aS'GFCJCD'
p4118
aa(lp4119
S'GFCJCJD'
p4120
aS'GFCJCJD'
p4121
aa(lp4122
S'GFCJD'
p4123
aS'GFCJD'
p4124
aa(lp4125
S'GFCJDD'
p4126
aS'GFCJDD'
p4127
aa(lp4128
S'GFCJID'
p4129
aS'GFCJID'
p4130
aa(lp4131
S'GFCKD'
p4132
aS'GFCKD'
p4133
aa(lp4134
S'GFCLCD'
p4135
aS'GFCLCD'
p4136
aa(lp4137
S'GFCMCCD'
p4138
aS'GFCMCCD'
p4139
aa(lp4140
S'GFCMJCDWD'
p4141
aS'GFCMJCDWD'
p4142
aa(lp4143
S'GFCPCCD'
p4144
aS'GFCPCCD'
p4145
aa(lp4146
S'GFCPCD'
p4147
aS'GFCPCD'
p4148
aa(lp4149
S'GFCPD'
p4150
aS'GFCPD'
p4151
aa(lp4152
S'GFCPDGD'
p4153
aS'GFCPDGD'
p4154
aa(lp4155
S'GFCPJD'
p4156
aS'GFCPJD'
p4157
aa(lp4158
S'GFCPJPD'
p4159
aS'GFCPJPD'
p4160
aa(lp4161
S'GFCPPCD'
p4162
aS'GFCPPCD'
p4163
aa(lp4164
S'GFCWCD'
p4165
aS'GFCWCD'
p4166
aa(lp4167
S'GFCWCWCD'
p4168
aS'GFCWCWCD'
p4169
aa(lp4170
S'GFCWFWFCCD'
p4171
aS'GFCWFWFCCD'
p4172
aa(lp4173
S'GFCWGWD'
p4174
aS'GFCWGWD'
p4175
aa(lp4176
S'GFD'
p4177
aS'GFD'
p4178
aa(lp4179
S'GFDCCCD'
p4180
aS'GFDCCCD'
p4181
aa(lp4182
S'GFDCCD'
p4183
aS'GFDCCD'
p4184
aa(lp4185
S'GFDCD'
p4186
aS'GFDCD'
p4187
aa(lp4188
S'GFDCDCDD'
p4189
aS'GFDCDCDD'
p4190
aa(lp4191
S'GFDCDD'
p4192
aS'GFDCDD'
p4193
aa(lp4194
S'GFDCDGD'
p4195
aS'GFDCDGD'
p4196
aa(lp4197
S'GFDCID'
p4198
aS'GFDCID'
p4199
aa(lp4200
S'GFDD'
p4201
aS'GFDD'
p4202
aa(lp4203
S'GFDDCCD'
p4204
aS'GFDDCCD'
p4205
aa(lp4206
S'GFDDCGD'
p4207
aS'GFDDCGD'
p4208
aa(lp4209
S'GFDDD'
p4210
aS'GFDDD'
p4211
aa(lp4212
S'GFDDGD'
p4213
aS'GFDDGD'
p4214
aa(lp4215
S'GFDDPD'
p4216
aS'GFDDPD'
p4217
aa(lp4218
S'GFDGCD'
p4219
aS'GFDGCD'
p4220
aa(lp4221
S'GFDGD'
p4222
aS'GFDGD'
p4223
aa(lp4224
S'GFDICD'
p4225
aS'GFDICD'
p4226
aa(lp4227
S'GFDICPCD'
p4228
aS'GFDICPCD'
p4229
aa(lp4230
S'GFDID'
p4231
aS'GFDID'
p4232
aa(lp4233
S'GFDJPCD'
p4234
aS'GFDJPCD'
p4235
aa(lp4236
S'GFDWD'
p4237
aS'GFDWD'
p4238
aa(lp4239
S'GFDWDWD'
p4240
aS'GFDWDWD'
p4241
aa(lp4242
S'GFFCCCD'
p4243
aS'GFFCCCD'
p4244
aa(lp4245
S'GFFCCD'
p4246
aS'GFFCCD'
p4247
aa(lp4248
S'GFFCD'
p4249
aS'GFFCD'
p4250
aa(lp4251
S'GFFCJD'
p4252
aS'GFFCJD'
p4253
aa(lp4254
S'GFFD'
p4255
aS'GFFD'
p4256
aa(lp4257
S'GFFDD'
p4258
aS'GFFDD'
p4259
aa(lp4260
S'GFFJJDGD'
p4261
aS'GFFJJDGD'
p4262
aa(lp4263
S'GFFPCGCD'
p4264
aS'GFFPCGCD'
p4265
aa(lp4266
S'GFFPDGD'
p4267
aS'GFFPDGD'
p4268
aa(lp4269
S'GFGCCCDD'
p4270
aS'GFGCCCDD'
p4271
aa(lp4272
S'GFGCCD'
p4273
aS'GFGCCD'
p4274
aa(lp4275
S'GFGCCDGPD'
p4276
aS'GFGCCDGPD'
p4277
aa(lp4278
S'GFGCD'
p4279
aS'GFGCD'
p4280
aa(lp4281
S'GFGCID'
p4282
aS'GFGCID'
p4283
aa(lp4284
S'GFGD'
p4285
aS'GFGD'
p4286
aa(lp4287
S'GFGFICD'
p4288
aS'GFGFICD'
p4289
aa(lp4290
S'GFGJCD'
p4291
aS'GFGJCD'
p4292
aa(lp4293
S'GFGMPD'
p4294
aS'GFGMPD'
p4295
aa(lp4296
S'GFICCD'
p4297
aS'GFICCD'
p4298
aa(lp4299
S'GFICCDCD'
p4300
aS'GFICCDCD'
p4301
aa(lp4302
S'GFICCDD'
p4303
aS'GFICCDD'
p4304
aa(lp4305
S'GFICD'
p4306
aS'GFICD'
p4307
aa(lp4308
S'GFICDCD'
p4309
aS'GFICDCD'
p4310
aa(lp4311
S'GFICDCJD'
p4312
aS'GFICDCJD'
p4313
aa(lp4314
S'GFICDD'
p4315
aS'GFICDD'
p4316
aa(lp4317
S'GFICDGD'
p4318
aS'GFICDGD'
p4319
aa(lp4320
S'GFICJD'
p4321
aS'GFICJD'
p4322
aa(lp4323
S'GFICKD'
p4324
aS'GFICKD'
p4325
aa(lp4326
S'GFID'
p4327
aS'GFID'
p4328
aa(lp4329
S'GFIDD'
p4330
aS'GFIDD'
p4331
aa(lp4332
S'GFIDFGD'
p4333
aS'GFIDFGD'
p4334
aa(lp4335
S'GFIDGCD'
p4336
aS'GFIDGCD'
p4337
aa(lp4338
S'GFIDGD'
p4339
aS'GFIDGD'
p4340
aa(lp4341
S'GFIDPCPCD'
p4342
aS'GFIDPCPCD'
p4343
aa(lp4344
S'GFIGD'
p4345
aS'GFIGD'
p4346
aa(lp4347
S'GFIICD'
p4348
aS'GFIICD'
p4349
aa(lp4350
S'GFIID'
p4351
aS'GFIID'
p4352
aa(lp4353
S'GFIIDFCD'
p4354
aS'GFIIDFCD'
p4355
aa(lp4356
S'GFIIGD'
p4357
aS'GFIIGD'
p4358
aa(lp4359
S'GFIJCCD'
p4360
aS'GFIJCCD'
p4361
aa(lp4362
S'GFIJD'
p4363
aS'GFIJD'
p4364
aa(lp4365
S'GFJCCCCD'
p4366
aS'GFJCCCCD'
p4367
aa(lp4368
S'GFJCCCD'
p4369
aS'GFJCCCD'
p4370
aa(lp4371
S'GFJCCD'
p4372
aS'GFJCCD'
p4373
aa(lp4374
S'GFJCCDD'
p4375
aS'GFJCCDD'
p4376
aa(lp4377
S'GFJCD'
p4378
aS'GFJCD'
p4379
aa(lp4380
S'GFJCDCD'
p4381
aS'GFJCDCD'
p4382
aa(lp4383
S'GFJCDD'
p4384
aS'GFJCDD'
p4385
aa(lp4386
S'GFJCDGD'
p4387
aS'GFJCDGD'
p4388
aa(lp4389
S'GFJCDWD'
p4390
aS'GFJCDWD'
p4391
aa(lp4392
S'GFJCJD'
p4393
aS'GFJCJD'
p4394
aa(lp4395
S'GFJD'
p4396
aS'GFJD'
p4397
aa(lp4398
S'GFJDD'
p4399
aS'GFJDD'
p4400
aa(lp4401
S'GFJDGCD'
p4402
aS'GFJDGCD'
p4403
aa(lp4404
S'GFJDGFCD'
p4405
aS'GFJDGFCD'
p4406
aa(lp4407
S'GFJDWD'
p4408
aS'GFJDWD'
p4409
aa(lp4410
S'GFJDWFICGD'
p4411
aS'GFJDWFICGD'
p4412
aa(lp4413
S'GFJFD'
p4414
aS'GFJFD'
p4415
aa(lp4416
S'GFJICD'
p4417
aS'GFJICD'
p4418
aa(lp4419
S'GFJICDGD'
p4420
aS'GFJICDGD'
p4421
aa(lp4422
S'GFJID'
p4423
aS'GFJID'
p4424
aa(lp4425
S'GFJJCCD'
p4426
aS'GFJJCCD'
p4427
aa(lp4428
S'GFJJCD'
p4429
aS'GFJJCD'
p4430
aa(lp4431
S'GFJJD'
p4432
aS'GFJJD'
p4433
aa(lp4434
S'GFJJDWGD'
p4435
aS'GFJJDWGD'
p4436
aa(lp4437
S'GFJJJCCD'
p4438
aS'GFJJJCCD'
p4439
aa(lp4440
S'GFJJLJCLCD'
p4441
aS'GFJJLJCLCD'
p4442
aa(lp4443
S'GFKD'
p4444
aS'GFKD'
p4445
aa(lp4446
S'GFKDGD'
p4447
aS'GFKDGD'
p4448
aa(lp4449
S'GFLCD'
p4450
aS'GFLCD'
p4451
aa(lp4452
S'GFLD'
p4453
aS'GFLD'
p4454
aa(lp4455
S'GFLPD'
p4456
aS'GFLPD'
p4457
aa(lp4458
S'GFMCD'
p4459
aS'GFMCD'
p4460
aa(lp4461
S'GFMJCD'
p4462
aS'GFMJCD'
p4463
aa(lp4464
S'GFPCCCD'
p4465
aS'GFPCCCD'
p4466
aa(lp4467
S'GFPCCD'
p4468
aS'GFPCCD'
p4469
aa(lp4470
S'GFPCD'
p4471
aS'GFPCD'
p4472
aa(lp4473
S'GFPCDCD'
p4474
aS'GFPCDCD'
p4475
aa(lp4476
S'GFPCDD'
p4477
aS'GFPCDD'
p4478
aa(lp4479
S'GFPCJD'
p4480
aS'GFPCJD'
p4481
aa(lp4482
S'GFPD'
p4483
aS'GFPD'
p4484
aa(lp4485
S'GFPDCD'
p4486
aS'GFPDCD'
p4487
aa(lp4488
S'GFPDD'
p4489
aS'GFPDD'
p4490
aa(lp4491
S'GFPDID'
p4492
aS'GFPDID'
p4493
aa(lp4494
S'GFPICD'
p4495
aS'GFPICD'
p4496
aa(lp4497
S'GFPIJD'
p4498
aS'GFPIJD'
p4499
aa(lp4500
S'GFPJCD'
p4501
aS'GFPJCD'
p4502
aa(lp4503
S'GFPJD'
p4504
aS'GFPJD'
p4505
aa(lp4506
S'GFPJIDD'
p4507
aS'GFPJIDD'
p4508
aa(lp4509
S'GFPJPD'
p4510
aS'GFPJPD'
p4511
aa(lp4512
S'GFPKD'
p4513
aS'GFPKD'
p4514
aa(lp4515
S'GFPPCCCD'
p4516
aS'GFPPCCCD'
p4517
aa(lp4518
S'GFPPCCD'
p4519
aS'GFPPCCD'
p4520
aa(lp4521
S'GFPPCD'
p4522
aS'GFPPCD'
p4523
aa(lp4524
S'GFPPD'
p4525
aS'GFPPD'
p4526
aa(lp4527
S'GFWCJCPCCCWCCD'
p4528
aS'GFWCJCPCCCWCCD'
p4529
aa(lp4530
S'GFWCWID'
p4531
aS'GFWCWID'
p4532
aa(lp4533
S'GFWDWD'
p4534
aS'GFWDWD'
p4535
aa(lp4536
S'GFWGWCD'
p4537
aS'GFWGWCD'
p4538
aa(lp4539
S'GFWJD'
p4540
aS'GFWJD'
p4541
aa(lp4542
S'GGCCCCCCD'
p4543
aS'GGCCCCCCD'
p4544
aa(lp4545
S'GGCCCCCD'
p4546
aS'GGCCCCCD'
p4547
aa(lp4548
S'GGCCCCD'
p4549
aS'GGCCCCD'
p4550
aa(lp4551
S'GGCCCCJCD'
p4552
aS'GGCCCCJCD'
p4553
aa(lp4554
S'GGCCCD'
p4555
aS'GGCCCD'
p4556
aa(lp4557
S'GGCCCDD'
p4558
aS'GGCCCDD'
p4559
aa(lp4560
S'GGCCCDDD'
p4561
aS'GGCCCDDD'
p4562
aa(lp4563
S'GGCCCDGD'
p4564
aS'GGCCCDGD'
p4565
aa(lp4566
S'GGCCCDWGCD'
p4567
aS'GGCCCDWGCD'
p4568
aa(lp4569
S'GGCCCICD'
p4570
aS'GGCCCICD'
p4571
aa(lp4572
S'GGCCCID'
p4573
aS'GGCCCID'
p4574
aa(lp4575
S'GGCCCWDWD'
p4576
aS'GGCCCWDWD'
p4577
aa(lp4578
S'GGCCD'
p4579
aS'GGCCD'
p4580
aa(lp4581
S'GGCCDCD'
p4582
aS'GGCCDCD'
p4583
aa(lp4584
S'GGCCDCDGD'
p4585
aS'GGCCDCDGD'
p4586
aa(lp4587
S'GGCCDD'
p4588
aS'GGCCDD'
p4589
aa(lp4590
S'GGCCDFGCD'
p4591
aS'GGCCDFGCD'
p4592
aa(lp4593
S'GGCCDGD'
p4594
aS'GGCCDGD'
p4595
aa(lp4596
S'GGCCDGDCD'
p4597
aS'GGCCDGDCD'
p4598
aa(lp4599
S'GGCCDID'
p4600
aS'GGCCDID'
p4601
aa(lp4602
S'GGCCDMCD'
p4603
aS'GGCCDMCD'
p4604
aa(lp4605
S'GGCCDWGD'
p4606
aS'GGCCDWGD'
p4607
aa(lp4608
S'GGCCFCD'
p4609
aS'GGCCFCD'
p4610
aa(lp4611
S'GGCCFD'
p4612
aS'GGCCFD'
p4613
aa(lp4614
S'GGCCGCCD'
p4615
aS'GGCCGCCD'
p4616
aa(lp4617
S'GGCCGCD'
p4618
aS'GGCCGCD'
p4619
aa(lp4620
S'GGCCGD'
p4621
aS'GGCCGD'
p4622
aa(lp4623
S'GGCCGJD'
p4624
aS'GGCCGJD'
p4625
aa(lp4626
S'GGCCICDD'
p4627
aS'GGCCICDD'
p4628
aa(lp4629
S'GGCCID'
p4630
aS'GGCCID'
p4631
aa(lp4632
S'GGCCJCCDD'
p4633
aS'GGCCJCCDD'
p4634
aa(lp4635
S'GGCCJCD'
p4636
aS'GGCCJCD'
p4637
aa(lp4638
S'GGCCJD'
p4639
aS'GGCCJD'
p4640
aa(lp4641
S'GGCCLCD'
p4642
aS'GGCCLCD'
p4643
aa(lp4644
S'GGCCPCD'
p4645
aS'GGCCPCD'
p4646
aa(lp4647
S'GGCCPJD'
p4648
aS'GGCCPJD'
p4649
aa(lp4650
S'GGCD'
p4651
aS'GGCD'
p4652
aa(lp4653
S'GGCDCCCCCD'
p4654
aS'GGCDCCCCCD'
p4655
aa(lp4656
S'GGCDCCD'
p4657
aS'GGCDCCD'
p4658
aa(lp4659
S'GGCDCCDGD'
p4660
aS'GGCDCCDGD'
p4661
aa(lp4662
S'GGCDCD'
p4663
aS'GGCDCD'
p4664
aa(lp4665
S'GGCDCDD'
p4666
aS'GGCDCDD'
p4667
aa(lp4668
S'GGCDCDGD'
p4669
aS'GGCDCDGD'
p4670
aa(lp4671
S'GGCDCGD'
p4672
aS'GGCDCGD'
p4673
aa(lp4674
S'GGCDD'
p4675
aS'GGCDD'
p4676
aa(lp4677
S'GGCDDCCD'
p4678
aS'GGCDDCCD'
p4679
aa(lp4680
S'GGCDGD'
p4681
aS'GGCDGD'
p4682
aa(lp4683
S'GGCDGPGCD'
p4684
aS'GGCDGPGCD'
p4685
aa(lp4686
S'GGCDID'
p4687
aS'GGCDID'
p4688
aa(lp4689
S'GGCDJD'
p4690
aS'GGCDJD'
p4691
aa(lp4692
S'GGCDMD'
p4693
aS'GGCDMD'
p4694
aa(lp4695
S'GGCFCCD'
p4696
aS'GGCFCCD'
p4697
aa(lp4698
S'GGCFCCFCPD'
p4699
aS'GGCFCCFCPD'
p4700
aa(lp4701
S'GGCFCD'
p4702
aS'GGCFCD'
p4703
aa(lp4704
S'GGCFD'
p4705
aS'GGCFD'
p4706
aa(lp4707
S'GGCFID'
p4708
aS'GGCFID'
p4709
aa(lp4710
S'GGCFJD'
p4711
aS'GGCFJD'
p4712
aa(lp4713
S'GGCGCCCCD'
p4714
aS'GGCGCCCCD'
p4715
aa(lp4716
S'GGCGCCCD'
p4717
aS'GGCGCCCD'
p4718
aa(lp4719
S'GGCGCCD'
p4720
aS'GGCGCCD'
p4721
aa(lp4722
S'GGCGCD'
p4723
aS'GGCGCD'
p4724
aa(lp4725
S'GGCGCGCCD'
p4726
aS'GGCGCGCCD'
p4727
aa(lp4728
S'GGCGCGCD'
p4729
aS'GGCGCGCD'
p4730
aa(lp4731
S'GGCGCGFCD'
p4732
aS'GGCGCGFCD'
p4733
aa(lp4734
S'GGCGD'
p4735
aS'GGCGD'
p4736
aa(lp4737
S'GGCGDGCD'
p4738
aS'GGCGDGCD'
p4739
aa(lp4740
S'GGCGFD'
p4741
aS'GGCGFD'
p4742
aa(lp4743
S'GGCGFID'
p4744
aS'GGCGFID'
p4745
aa(lp4746
S'GGCGGCD'
p4747
aS'GGCGGCD'
p4748
aa(lp4749
S'GGCGGD'
p4750
aS'GGCGGD'
p4751
aa(lp4752
S'GGCGGGD'
p4753
aS'GGCGGGD'
p4754
aa(lp4755
S'GGCGGJD'
p4756
aS'GGCGGJD'
p4757
aa(lp4758
S'GGCGICCD'
p4759
aS'GGCGICCD'
p4760
aa(lp4761
S'GGCGIICD'
p4762
aS'GGCGIICD'
p4763
aa(lp4764
S'GGCGILICD'
p4765
aS'GGCGILICD'
p4766
aa(lp4767
S'GGCGJID'
p4768
aS'GGCGJID'
p4769
aa(lp4770
S'GGCGJIJCD'
p4771
aS'GGCGJIJCD'
p4772
aa(lp4773
S'GGCGPCCD'
p4774
aS'GGCGPCCD'
p4775
aa(lp4776
S'GGCGPCD'
p4777
aS'GGCGPCD'
p4778
aa(lp4779
S'GGCGPJCCD'
p4780
aS'GGCGPJCCD'
p4781
aa(lp4782
S'GGCGPJCD'
p4783
aS'GGCGPJCD'
p4784
aa(lp4785
S'GGCGPJD'
p4786
aS'GGCGPJD'
p4787
aa(lp4788
S'GGCGPPD'
p4789
aS'GGCGPPD'
p4790
aa(lp4791
S'GGCICCD'
p4792
aS'GGCICCD'
p4793
aa(lp4794
S'GGCICCID'
p4795
aS'GGCICCID'
p4796
aa(lp4797
S'GGCICD'
p4798
aS'GGCICD'
p4799
aa(lp4800
S'GGCICLCD'
p4801
aS'GGCICLCD'
p4802
aa(lp4803
S'GGCID'
p4804
aS'GGCID'
p4805
aa(lp4806
S'GGCIDD'
p4807
aS'GGCIDD'
p4808
aa(lp4809
S'GGCIICD'
p4810
aS'GGCIICD'
p4811
aa(lp4812
S'GGCIIJD'
p4813
aS'GGCIIJD'
p4814
aa(lp4815
S'GGCIJCD'
p4816
aS'GGCIJCD'
p4817
aa(lp4818
S'GGCIPCICCD'
p4819
aS'GGCIPCICCD'
p4820
aa(lp4821
S'GGCIPD'
p4822
aS'GGCIPD'
p4823
aa(lp4824
S'GGCJCCD'
p4825
aS'GGCJCCD'
p4826
aa(lp4827
S'GGCJCD'
p4828
aS'GGCJCD'
p4829
aa(lp4830
S'GGCJCDD'
p4831
aS'GGCJCDD'
p4832
aa(lp4833
S'GGCJCJD'
p4834
aS'GGCJCJD'
p4835
aa(lp4836
S'GGCJD'
p4837
aS'GGCJD'
p4838
aa(lp4839
S'GGCJDD'
p4840
aS'GGCJDD'
p4841
aa(lp4842
S'GGCJDDCD'
p4843
aS'GGCJDDCD'
p4844
aa(lp4845
S'GGCJID'
p4846
aS'GGCJID'
p4847
aa(lp4848
S'GGCJJCCD'
p4849
aS'GGCJJCCD'
p4850
aa(lp4851
S'GGCJJD'
p4852
aS'GGCJJD'
p4853
aa(lp4854
S'GGCJPCICCCD'
p4855
aS'GGCJPCICCCD'
p4856
aa(lp4857
S'GGCJPD'
p4858
aS'GGCJPD'
p4859
aa(lp4860
S'GGCKLCD'
p4861
aS'GGCKLCD'
p4862
aa(lp4863
S'GGCLCCD'
p4864
aS'GGCLCCD'
p4865
aa(lp4866
S'GGCLCD'
p4867
aS'GGCLCD'
p4868
aa(lp4869
S'GGCLD'
p4870
aS'GGCLD'
p4871
aa(lp4872
S'GGCMCIJD'
p4873
aS'GGCMCIJD'
p4874
aa(lp4875
S'GGCMD'
p4876
aS'GGCMD'
p4877
aa(lp4878
S'GGCMID'
p4879
aS'GGCMID'
p4880
aa(lp4881
S'GGCPCCCD'
p4882
aS'GGCPCCCD'
p4883
aa(lp4884
S'GGCPCCD'
p4885
aS'GGCPCCD'
p4886
aa(lp4887
S'GGCPCCJCCCWD'
p4888
aS'GGCPCCJCCCWD'
p4889
aa(lp4890
S'GGCPCD'
p4891
aS'GGCPCD'
p4892
aa(lp4893
S'GGCPCDD'
p4894
aS'GGCPCDD'
p4895
aa(lp4896
S'GGCPD'
p4897
aS'GGCPD'
p4898
aa(lp4899
S'GGCPDD'
p4900
aS'GGCPDD'
p4901
aa(lp4902
S'GGCPGGCID'
p4903
aS'GGCPGGCID'
p4904
aa(lp4905
S'GGCPICD'
p4906
aS'GGCPICD'
p4907
aa(lp4908
S'GGCPICDD'
p4909
aS'GGCPICDD'
p4910
aa(lp4911
S'GGCPID'
p4912
aS'GGCPID'
p4913
aa(lp4914
S'GGCPJCD'
p4915
aS'GGCPJCD'
p4916
aa(lp4917
S'GGCPPCCD'
p4918
aS'GGCPPCCD'
p4919
aa(lp4920
S'GGCPPD'
p4921
aS'GGCPPD'
p4922
aa(lp4923
S'GGCWDWCCDGCD'
p4924
aS'GGCWDWCCDGCD'
p4925
aa(lp4926
S'GGCWGD'
p4927
aS'GGCWGD'
p4928
aa(lp4929
S'GGD'
p4930
aS'GGD'
p4931
aa(lp4932
S'GGDCCCD'
p4933
aS'GGDCCCD'
p4934
aa(lp4935
S'GGDCCD'
p4936
aS'GGDCCD'
p4937
aa(lp4938
S'GGDCD'
p4939
aS'GGDCD'
p4940
aa(lp4941
S'GGDCDCCD'
p4942
aS'GGDCDCCD'
p4943
aa(lp4944
S'GGDCJD'
p4945
aS'GGDCJD'
p4946
aa(lp4947
S'GGDD'
p4948
aS'GGDD'
p4949
aa(lp4950
S'GGDDCCD'
p4951
aS'GGDDCCD'
p4952
aa(lp4953
S'GGDDCD'
p4954
aS'GGDDCD'
p4955
aa(lp4956
S'GGDDD'
p4957
aS'GGDDD'
p4958
aa(lp4959
S'GGDDFD'
p4960
aS'GGDDFD'
p4961
aa(lp4962
S'GGDFCD'
p4963
aS'GGDFCD'
p4964
aa(lp4965
S'GGDFD'
p4966
aS'GGDFD'
p4967
aa(lp4968
S'GGDGCCGCD'
p4969
aS'GGDGCCGCD'
p4970
aa(lp4971
S'GGDGCDGD'
p4972
aS'GGDGCDGD'
p4973
aa(lp4974
S'GGDGD'
p4975
aS'GGDGD'
p4976
aa(lp4977
S'GGDID'
p4978
aS'GGDID'
p4979
aa(lp4980
S'GGDJCD'
p4981
aS'GGDJCD'
p4982
aa(lp4983
S'GGDJD'
p4984
aS'GGDJD'
p4985
aa(lp4986
S'GGDJJD'
p4987
aS'GGDJJD'
p4988
aa(lp4989
S'GGDLGD'
p4990
aS'GGDLGD'
p4991
aa(lp4992
S'GGDPPJD'
p4993
aS'GGDPPJD'
p4994
aa(lp4995
S'GGFCCCCD'
p4996
aS'GGFCCCCD'
p4997
aa(lp4998
S'GGFCCCD'
p4999
aS'GGFCCCD'
p5000
aa(lp5001
S'GGFCCD'
p5002
aS'GGFCCD'
p5003
aa(lp5004
S'GGFCD'
p5005
aS'GGFCD'
p5006
aa(lp5007
S'GGFCDD'
p5008
aS'GGFCDD'
p5009
aa(lp5010
S'GGFCDID'
p5011
aS'GGFCDID'
p5012
aa(lp5013
S'GGFCFCDD'
p5014
aS'GGFCFCDD'
p5015
aa(lp5016
S'GGFCID'
p5017
aS'GGFCID'
p5018
aa(lp5019
S'GGFCJD'
p5020
aS'GGFCJD'
p5021
aa(lp5022
S'GGFCMCCD'
p5023
aS'GGFCMCCD'
p5024
aa(lp5025
S'GGFD'
p5026
aS'GGFD'
p5027
aa(lp5028
S'GGFDCD'
p5029
aS'GGFDCD'
p5030
aa(lp5031
S'GGFDD'
p5032
aS'GGFDD'
p5033
aa(lp5034
S'GGFDDD'
p5035
aS'GGFDDD'
p5036
aa(lp5037
S'GGFFCD'
p5038
aS'GGFFCD'
p5039
aa(lp5040
S'GGFFD'
p5041
aS'GGFFD'
p5042
aa(lp5043
S'GGFFDCD'
p5044
aS'GGFFDCD'
p5045
aa(lp5046
S'GGFFDD'
p5047
aS'GGFFDD'
p5048
aa(lp5049
S'GGFGD'
p5050
aS'GGFGD'
p5051
aa(lp5052
S'GGFICD'
p5053
aS'GGFICD'
p5054
aa(lp5055
S'GGFICDD'
p5056
aS'GGFICDD'
p5057
aa(lp5058
S'GGFID'
p5059
aS'GGFID'
p5060
aa(lp5061
S'GGFJCCD'
p5062
aS'GGFJCCD'
p5063
aa(lp5064
S'GGFJCD'
p5065
aS'GGFJCD'
p5066
aa(lp5067
S'GGFJD'
p5068
aS'GGFJD'
p5069
aa(lp5070
S'GGFJDD'
p5071
aS'GGFJDD'
p5072
aa(lp5073
S'GGFJID'
p5074
aS'GGFJID'
p5075
aa(lp5076
S'GGFJJD'
p5077
aS'GGFJJD'
p5078
aa(lp5079
S'GGFJMD'
p5080
aS'GGFJMD'
p5081
aa(lp5082
S'GGFKID'
p5083
aS'GGFKID'
p5084
aa(lp5085
S'GGFLD'
p5086
aS'GGFLD'
p5087
aa(lp5088
S'GGFMJDD'
p5089
aS'GGFMJDD'
p5090
aa(lp5091
S'GGFPCD'
p5092
aS'GGFPCD'
p5093
aa(lp5094
S'GGFPCFPCD'
p5095
aS'GGFPCFPCD'
p5096
aa(lp5097
S'GGFPD'
p5098
aS'GGFPD'
p5099
aa(lp5100
S'GGFWID'
p5101
aS'GGFWID'
p5102
aa(lp5103
S'GGGCCCCD'
p5104
aS'GGGCCCCD'
p5105
aa(lp5106
S'GGGCCCD'
p5107
aS'GGGCCCD'
p5108
aa(lp5109
S'GGGCCCDGD'
p5110
aS'GGGCCCDGD'
p5111
aa(lp5112
S'GGGCCCICD'
p5113
aS'GGGCCCICD'
p5114
aa(lp5115
S'GGGCCD'
p5116
aS'GGGCCD'
p5117
aa(lp5118
S'GGGCCDGD'
p5119
aS'GGGCCDGD'
p5120
aa(lp5121
S'GGGCCID'
p5122
aS'GGGCCID'
p5123
aa(lp5124
S'GGGCD'
p5125
aS'GGGCD'
p5126
aa(lp5127
S'GGGCDD'
p5128
aS'GGGCDD'
p5129
aa(lp5130
S'GGGCGCD'
p5131
aS'GGGCGCD'
p5132
aa(lp5133
S'GGGCGD'
p5134
aS'GGGCGD'
p5135
aa(lp5136
S'GGGCGGD'
p5137
aS'GGGCGGD'
p5138
aa(lp5139
S'GGGCID'
p5140
aS'GGGCID'
p5141
aa(lp5142
S'GGGCJCD'
p5143
aS'GGGCJCD'
p5144
aa(lp5145
S'GGGCJD'
p5146
aS'GGGCJD'
p5147
aa(lp5148
S'GGGCPD'
p5149
aS'GGGCPD'
p5150
aa(lp5151
S'GGGCPFCPCD'
p5152
aS'GGGCPFCPCD'
p5153
aa(lp5154
S'GGGCPJD'
p5155
aS'GGGCPJD'
p5156
aa(lp5157
S'GGGD'
p5158
aS'GGGD'
p5159
aa(lp5160
S'GGGDCD'
p5161
aS'GGGDCD'
p5162
aa(lp5163
S'GGGDD'
p5164
aS'GGGDD'
p5165
aa(lp5166
S'GGGFCCD'
p5167
aS'GGGFCCD'
p5168
aa(lp5169
S'GGGFCCID'
p5170
aS'GGGFCCID'
p5171
aa(lp5172
S'GGGFCD'
p5173
aS'GGGFCD'
p5174
aa(lp5175
S'GGGFCJD'
p5176
aS'GGGFCJD'
p5177
aa(lp5178
S'GGGFD'
p5179
aS'GGGFD'
p5180
aa(lp5181
S'GGGFID'
p5182
aS'GGGFID'
p5183
aa(lp5184
S'GGGGCD'
p5185
aS'GGGGCD'
p5186
aa(lp5187
S'GGGGD'
p5188
aS'GGGGD'
p5189
aa(lp5190
S'GGGGFJD'
p5191
aS'GGGGFJD'
p5192
aa(lp5193
S'GGGGICD'
p5194
aS'GGGGICD'
p5195
aa(lp5196
S'GGGGJD'
p5197
aS'GGGGJD'
p5198
aa(lp5199
S'GGGGJPD'
p5200
aS'GGGGJPD'
p5201
aa(lp5202
S'GGGGLD'
p5203
aS'GGGGLD'
p5204
aa(lp5205
S'GGGGPCD'
p5206
aS'GGGGPCD'
p5207
aa(lp5208
S'GGGGPJD'
p5209
aS'GGGGPJD'
p5210
aa(lp5211
S'GGGGPPD'
p5212
aS'GGGGPPD'
p5213
aa(lp5214
S'GGGICCD'
p5215
aS'GGGICCD'
p5216
aa(lp5217
S'GGGICD'
p5218
aS'GGGICD'
p5219
aa(lp5220
S'GGGICJD'
p5221
aS'GGGICJD'
p5222
aa(lp5223
S'GGGID'
p5224
aS'GGGID'
p5225
aa(lp5226
S'GGGIDGID'
p5227
aS'GGGIDGID'
p5228
aa(lp5229
S'GGGIDID'
p5230
aS'GGGIDID'
p5231
aa(lp5232
S'GGGIGCJD'
p5233
aS'GGGIGCJD'
p5234
aa(lp5235
S'GGGIICD'
p5236
aS'GGGIICD'
p5237
aa(lp5238
S'GGGIJD'
p5239
aS'GGGIJD'
p5240
aa(lp5241
S'GGGJCCD'
p5242
aS'GGGJCCD'
p5243
aa(lp5244
S'GGGJCD'
p5245
aS'GGGJCD'
p5246
aa(lp5247
S'GGGJD'
p5248
aS'GGGJD'
p5249
aa(lp5250
S'GGGJGID'
p5251
aS'GGGJGID'
p5252
aa(lp5253
S'GGGJJCJD'
p5254
aS'GGGJJCJD'
p5255
aa(lp5256
S'GGGJJD'
p5257
aS'GGGJJD'
p5258
aa(lp5259
S'GGGJPCCD'
p5260
aS'GGGJPCCD'
p5261
aa(lp5262
S'GGGKCD'
p5263
aS'GGGKCD'
p5264
aa(lp5265
S'GGGKDJD'
p5266
aS'GGGKDJD'
p5267
aa(lp5268
S'GGGLD'
p5269
aS'GGGLD'
p5270
aa(lp5271
S'GGGLJCD'
p5272
aS'GGGLJCD'
p5273
aa(lp5274
S'GGGMCD'
p5275
aS'GGGMCD'
p5276
aa(lp5277
S'GGGMD'
p5278
aS'GGGMD'
p5279
aa(lp5280
S'GGGPCD'
p5281
aS'GGGPCD'
p5282
aa(lp5283
S'GGGPFIDWD'
p5284
aS'GGGPFIDWD'
p5285
aa(lp5286
S'GGGPIICD'
p5287
aS'GGGPIICD'
p5288
aa(lp5289
S'GGGPIPD'
p5290
aS'GGGPIPD'
p5291
aa(lp5292
S'GGGPJD'
p5293
aS'GGGPJD'
p5294
aa(lp5295
S'GGGPPID'
p5296
aS'GGGPPID'
p5297
aa(lp5298
S'GGGWICWD'
p5299
aS'GGGWICWD'
p5300
aa(lp5301
S'GGICCCCD'
p5302
aS'GGICCCCD'
p5303
aa(lp5304
S'GGICCCD'
p5305
aS'GGICCCD'
p5306
aa(lp5307
S'GGICCD'
p5308
aS'GGICCD'
p5309
aa(lp5310
S'GGICCGCD'
p5311
aS'GGICCGCD'
p5312
aa(lp5313
S'GGICCGD'
p5314
aS'GGICCGD'
p5315
aa(lp5316
S'GGICCID'
p5317
aS'GGICCID'
p5318
aa(lp5319
S'GGICCLD'
p5320
aS'GGICCLD'
p5321
aa(lp5322
S'GGICCPCCD'
p5323
aS'GGICCPCCD'
p5324
aa(lp5325
S'GGICD'
p5326
aS'GGICD'
p5327
aa(lp5328
S'GGICDD'
p5329
aS'GGICDD'
p5330
aa(lp5331
S'GGICFID'
p5332
aS'GGICFID'
p5333
aa(lp5334
S'GGICGCCCD'
p5335
aS'GGICGCCCD'
p5336
aa(lp5337
S'GGICID'
p5338
aS'GGICID'
p5339
aa(lp5340
S'GGICJCD'
p5341
aS'GGICJCD'
p5342
aa(lp5343
S'GGICJD'
p5344
aS'GGICJD'
p5345
aa(lp5346
S'GGICJDD'
p5347
aS'GGICJDD'
p5348
aa(lp5349
S'GGICPCCID'
p5350
aS'GGICPCCID'
p5351
aa(lp5352
S'GGICPD'
p5353
aS'GGICPD'
p5354
aa(lp5355
S'GGID'
p5356
aS'GGID'
p5357
aa(lp5358
S'GGIDCD'
p5359
aS'GGIDCD'
p5360
aa(lp5361
S'GGIDD'
p5362
aS'GGIDD'
p5363
aa(lp5364
S'GGIDID'
p5365
aS'GGIDID'
p5366
aa(lp5367
S'GGIDWGD'
p5368
aS'GGIDWGD'
p5369
aa(lp5370
S'GGIFCCD'
p5371
aS'GGIFCCD'
p5372
aa(lp5373
S'GGIFCD'
p5374
aS'GGIFCD'
p5375
aa(lp5376
S'GGIFCJD'
p5377
aS'GGIFCJD'
p5378
aa(lp5379
S'GGIFD'
p5380
aS'GGIFD'
p5381
aa(lp5382
S'GGIFICD'
p5383
aS'GGIFICD'
p5384
aa(lp5385
S'GGIFID'
p5386
aS'GGIFID'
p5387
aa(lp5388
S'GGIFIDDD'
p5389
aS'GGIFIDDD'
p5390
aa(lp5391
S'GGIFJCD'
p5392
aS'GGIFJCD'
p5393
aa(lp5394
S'GGIFJD'
p5395
aS'GGIFJD'
p5396
aa(lp5397
S'GGIFMID'
p5398
aS'GGIFMID'
p5399
aa(lp5400
S'GGIFPD'
p5401
aS'GGIFPD'
p5402
aa(lp5403
S'GGIGCCD'
p5404
aS'GGIGCCD'
p5405
aa(lp5406
S'GGIGD'
p5407
aS'GGIGD'
p5408
aa(lp5409
S'GGIGPFD'
p5410
aS'GGIGPFD'
p5411
aa(lp5412
S'GGIICCD'
p5413
aS'GGIICCD'
p5414
aa(lp5415
S'GGIICD'
p5416
aS'GGIICD'
p5417
aa(lp5418
S'GGIID'
p5419
aS'GGIID'
p5420
aa(lp5421
S'GGIIPID'
p5422
aS'GGIIPID'
p5423
aa(lp5424
S'GGIJCCD'
p5425
aS'GGIJCCD'
p5426
aa(lp5427
S'GGIJCD'
p5428
aS'GGIJCD'
p5429
aa(lp5430
S'GGIJCID'
p5431
aS'GGIJCID'
p5432
aa(lp5433
S'GGIJD'
p5434
aS'GGIJD'
p5435
aa(lp5436
S'GGIJDD'
p5437
aS'GGIJDD'
p5438
aa(lp5439
S'GGIJICD'
p5440
aS'GGIJICD'
p5441
aa(lp5442
S'GGIPCCD'
p5443
aS'GGIPCCD'
p5444
aa(lp5445
S'GGIPCD'
p5446
aS'GGIPCD'
p5447
aa(lp5448
S'GGIPD'
p5449
aS'GGIPD'
p5450
aa(lp5451
S'GGIPDCCD'
p5452
aS'GGIPDCCD'
p5453
aa(lp5454
S'GGIPDD'
p5455
aS'GGIPDD'
p5456
aa(lp5457
S'GGIPICD'
p5458
aS'GGIPICD'
p5459
aa(lp5460
S'GGIPMICD'
p5461
aS'GGIPMICD'
p5462
aa(lp5463
S'GGJCCCCCD'
p5464
aS'GGJCCCCCD'
p5465
aa(lp5466
S'GGJCCCCD'
p5467
aS'GGJCCCCD'
p5468
aa(lp5469
S'GGJCCCD'
p5470
aS'GGJCCCD'
p5471
aa(lp5472
S'GGJCCD'
p5473
aS'GGJCCD'
p5474
aa(lp5475
S'GGJCCICD'
p5476
aS'GGJCCICD'
p5477
aa(lp5478
S'GGJCCPCJCCD'
p5479
aS'GGJCCPCJCCD'
p5480
aa(lp5481
S'GGJCD'
p5482
aS'GGJCD'
p5483
aa(lp5484
S'GGJCDD'
p5485
aS'GGJCDD'
p5486
aa(lp5487
S'GGJCGCD'
p5488
aS'GGJCGCD'
p5489
aa(lp5490
S'GGJCICCD'
p5491
aS'GGJCICCD'
p5492
aa(lp5493
S'GGJCICD'
p5494
aS'GGJCICD'
p5495
aa(lp5496
S'GGJCWDWD'
p5497
aS'GGJCWDWD'
p5498
aa(lp5499
S'GGJD'
p5500
aS'GGJD'
p5501
aa(lp5502
S'GGJGCCCD'
p5503
aS'GGJGCCCD'
p5504
aa(lp5505
S'GGJGCCD'
p5506
aS'GGJGCCD'
p5507
aa(lp5508
S'GGJGCD'
p5509
aS'GGJGCD'
p5510
aa(lp5511
S'GGJGCICD'
p5512
aS'GGJGCICD'
p5513
aa(lp5514
S'GGJGCLCGCD'
p5515
aS'GGJGCLCGCD'
p5516
aa(lp5517
S'GGJGD'
p5518
aS'GGJGD'
p5519
aa(lp5520
S'GGJICCD'
p5521
aS'GGJICCD'
p5522
aa(lp5523
S'GGJICJD'
p5524
aS'GGJICJD'
p5525
aa(lp5526
S'GGJICPCCD'
p5527
aS'GGJICPCCD'
p5528
aa(lp5529
S'GGJID'
p5530
aS'GGJID'
p5531
aa(lp5532
S'GGJIID'
p5533
aS'GGJIID'
p5534
aa(lp5535
S'GGJJCD'
p5536
aS'GGJJCD'
p5537
aa(lp5538
S'GGJJCDD'
p5539
aS'GGJJCDD'
p5540
aa(lp5541
S'GGJJCKD'
p5542
aS'GGJJCKD'
p5543
aa(lp5544
S'GGJJD'
p5545
aS'GGJJD'
p5546
aa(lp5547
S'GGJJID'
p5548
aS'GGJJID'
p5549
aa(lp5550
S'GGJJPCD'
p5551
aS'GGJJPCD'
p5552
aa(lp5553
S'GGJLD'
p5554
aS'GGJLD'
p5555
aa(lp5556
S'GGJMID'
p5557
aS'GGJMID'
p5558
aa(lp5559
S'GGJPCCCCD'
p5560
aS'GGJPCCCCD'
p5561
aa(lp5562
S'GGJPCCD'
p5563
aS'GGJPCCD'
p5564
aa(lp5565
S'GGJPCD'
p5566
aS'GGJPCD'
p5567
aa(lp5568
S'GGJPCJCD'
p5569
aS'GGJPCJCD'
p5570
aa(lp5571
S'GGJPCJPJCD'
p5572
aS'GGJPCJPJCD'
p5573
aa(lp5574
S'GGJPD'
p5575
aS'GGJPD'
p5576
aa(lp5577
S'GGJPDD'
p5578
aS'GGJPDD'
p5579
aa(lp5580
S'GGJPID'
p5581
aS'GGJPID'
p5582
aa(lp5583
S'GGJPJD'
p5584
aS'GGJPJD'
p5585
aa(lp5586
S'GGKCCCD'
p5587
aS'GGKCCCD'
p5588
aa(lp5589
S'GGKCD'
p5590
aS'GGKCD'
p5591
aa(lp5592
S'GGKD'
p5593
aS'GGKD'
p5594
aa(lp5595
S'GGKDD'
p5596
aS'GGKDD'
p5597
aa(lp5598
S'GGKGD'
p5599
aS'GGKGD'
p5600
aa(lp5601
S'GGLCCCD'
p5602
aS'GGLCCCD'
p5603
aa(lp5604
S'GGLCCD'
p5605
aS'GGLCCD'
p5606
aa(lp5607
S'GGLCCPJD'
p5608
aS'GGLCCPJD'
p5609
aa(lp5610
S'GGLCD'
p5611
aS'GGLCD'
p5612
aa(lp5613
S'GGLCDD'
p5614
aS'GGLCDD'
p5615
aa(lp5616
S'GGLCJD'
p5617
aS'GGLCJD'
p5618
aa(lp5619
S'GGLCPD'
p5620
aS'GGLCPD'
p5621
aa(lp5622
S'GGLD'
p5623
aS'GGLD'
p5624
aa(lp5625
S'GGLFCCCD'
p5626
aS'GGLFCCCD'
p5627
aa(lp5628
S'GGLFD'
p5629
aS'GGLFD'
p5630
aa(lp5631
S'GGLGCJD'
p5632
aS'GGLGCJD'
p5633
aa(lp5634
S'GGLGFID'
p5635
aS'GGLGFID'
p5636
aa(lp5637
S'GGLGPCD'
p5638
aS'GGLGPCD'
p5639
aa(lp5640
S'GGLID'
p5641
aS'GGLID'
p5642
aa(lp5643
S'GGLJCCD'
p5644
aS'GGLJCCD'
p5645
aa(lp5646
S'GGLJCID'
p5647
aS'GGLJCID'
p5648
aa(lp5649
S'GGLJD'
p5650
aS'GGLJD'
p5651
aa(lp5652
S'GGLLFD'
p5653
aS'GGLLFD'
p5654
aa(lp5655
S'GGLPD'
p5656
aS'GGLPD'
p5657
aa(lp5658
S'GGMCD'
p5659
aS'GGMCD'
p5660
aa(lp5661
S'GGMCDD'
p5662
aS'GGMCDD'
p5663
aa(lp5664
S'GGMD'
p5665
aS'GGMD'
p5666
aa(lp5667
S'GGMFJD'
p5668
aS'GGMFJD'
p5669
aa(lp5670
S'GGMJCD'
p5671
aS'GGMJCD'
p5672
aa(lp5673
S'GGMJCDGD'
p5674
aS'GGMJCDGD'
p5675
aa(lp5676
S'GGMLD'
p5677
aS'GGMLD'
p5678
aa(lp5679
S'GGMPCCD'
p5680
aS'GGMPCCD'
p5681
aa(lp5682
S'GGMPJD'
p5683
aS'GGMPJD'
p5684
aa(lp5685
S'GGPCCCD'
p5686
aS'GGPCCCD'
p5687
aa(lp5688
S'GGPCCD'
p5689
aS'GGPCCD'
p5690
aa(lp5691
S'GGPCCDD'
p5692
aS'GGPCCDD'
p5693
aa(lp5694
S'GGPCD'
p5695
aS'GGPCD'
p5696
aa(lp5697
S'GGPCDD'
p5698
aS'GGPCDD'
p5699
aa(lp5700
S'GGPCICD'
p5701
aS'GGPCICD'
p5702
aa(lp5703
S'GGPCID'
p5704
aS'GGPCID'
p5705
aa(lp5706
S'GGPCJCD'
p5707
aS'GGPCJCD'
p5708
aa(lp5709
S'GGPD'
p5710
aS'GGPD'
p5711
aa(lp5712
S'GGPFCCD'
p5713
aS'GGPFCCD'
p5714
aa(lp5715
S'GGPFCD'
p5716
aS'GGPFCD'
p5717
aa(lp5718
S'GGPFCID'
p5719
aS'GGPFCID'
p5720
aa(lp5721
S'GGPFD'
p5722
aS'GGPFD'
p5723
aa(lp5724
S'GGPFJD'
p5725
aS'GGPFJD'
p5726
aa(lp5727
S'GGPGCD'
p5728
aS'GGPGCD'
p5729
aa(lp5730
S'GGPGID'
p5731
aS'GGPGID'
p5732
aa(lp5733
S'GGPICD'
p5734
aS'GGPICD'
p5735
aa(lp5736
S'GGPICFCD'
p5737
aS'GGPICFCD'
p5738
aa(lp5739
S'GGPID'
p5740
aS'GGPID'
p5741
aa(lp5742
S'GGPIDD'
p5743
aS'GGPIDD'
p5744
aa(lp5745
S'GGPIID'
p5746
aS'GGPIID'
p5747
aa(lp5748
S'GGPJCCCCD'
p5749
aS'GGPJCCCCD'
p5750
aa(lp5751
S'GGPJCCCD'
p5752
aS'GGPJCCCD'
p5753
aa(lp5754
S'GGPJCCD'
p5755
aS'GGPJCCD'
p5756
aa(lp5757
S'GGPJCCID'
p5758
aS'GGPJCCID'
p5759
aa(lp5760
S'GGPJCD'
p5761
aS'GGPJCD'
p5762
aa(lp5763
S'GGPJCDD'
p5764
aS'GGPJCDD'
p5765
aa(lp5766
S'GGPJCJMD'
p5767
aS'GGPJCJMD'
p5768
aa(lp5769
S'GGPJD'
p5770
aS'GGPJD'
p5771
aa(lp5772
S'GGPJID'
p5773
aS'GGPJID'
p5774
aa(lp5775
S'GGPJKCCD'
p5776
aS'GGPJKCCD'
p5777
aa(lp5778
S'GGPJPCD'
p5779
aS'GGPJPCD'
p5780
aa(lp5781
S'GGPLD'
p5782
aS'GGPLD'
p5783
aa(lp5784
S'GGPPCCD'
p5785
aS'GGPPCCD'
p5786
aa(lp5787
S'GGPPCD'
p5788
aS'GGPPCD'
p5789
aa(lp5790
S'GGPPCID'
p5791
aS'GGPPCID'
p5792
aa(lp5793
S'GGPPD'
p5794
aS'GGPPD'
p5795
aa(lp5796
S'GGPPDD'
p5797
aS'GGPPDD'
p5798
aa(lp5799
S'GGPPFCCD'
p5800
aS'GGPPFCCD'
p5801
aa(lp5802
S'GGPPICD'
p5803
aS'GGPPICD'
p5804
aa(lp5805
S'GGPPJCD'
p5806
aS'GGPPJCD'
p5807
aa(lp5808
S'GGPPJJD'
p5809
aS'GGPPJJD'
p5810
aa(lp5811
S'GGPPPCD'
p5812
aS'GGPPPCD'
p5813
aa(lp5814
S'GGWCJD'
p5815
aS'GGWCJD'
p5816
aa(lp5817
S'GGWGWID'
p5818
aS'GGWGWID'
p5819
aa(lp5820
S'GGWIWCCD'
p5821
aS'GGWIWCCD'
p5822
aa(lp5823
S'GGWPCGWPJD'
p5824
aS'GGWPCGWPJD'
p5825
aa(lp5826
S'GICCCCCCCD'
p5827
aS'GICCCCCCCD'
p5828
aa(lp5829
S'GICCCCCCD'
p5830
aS'GICCCCCCD'
p5831
aa(lp5832
S'GICCCCCD'
p5833
aS'GICCCCCD'
p5834
aa(lp5835
S'GICCCCD'
p5836
aS'GICCCCD'
p5837
aa(lp5838
S'GICCCD'
p5839
aS'GICCCD'
p5840
aa(lp5841
S'GICCCDD'
p5842
aS'GICCCDD'
p5843
aa(lp5844
S'GICCCDGD'
p5845
aS'GICCCDGD'
p5846
aa(lp5847
S'GICCCJCD'
p5848
aS'GICCCJCD'
p5849
aa(lp5850
S'GICCD'
p5851
aS'GICCD'
p5852
aa(lp5853
S'GICCDD'
p5854
aS'GICCDD'
p5855
aa(lp5856
S'GICCDDD'
p5857
aS'GICCDDD'
p5858
aa(lp5859
S'GICCDGCD'
p5860
aS'GICCDGCD'
p5861
aa(lp5862
S'GICCDGD'
p5863
aS'GICCDGD'
p5864
aa(lp5865
S'GICCDWD'
p5866
aS'GICCDWD'
p5867
aa(lp5868
S'GICCDWGD'
p5869
aS'GICCDWGD'
p5870
aa(lp5871
S'GICCFCCD'
p5872
aS'GICCFCCD'
p5873
aa(lp5874
S'GICCICCD'
p5875
aS'GICCICCD'
p5876
aa(lp5877
S'GICCICD'
p5878
aS'GICCICD'
p5879
aa(lp5880
S'GICCID'
p5881
aS'GICCID'
p5882
aa(lp5883
S'GICCJCCD'
p5884
aS'GICCJCCD'
p5885
aa(lp5886
S'GICCJD'
p5887
aS'GICCJD'
p5888
aa(lp5889
S'GICCLDD'
p5890
aS'GICCLDD'
p5891
aa(lp5892
S'GICCPD'
p5893
aS'GICCPD'
p5894
aa(lp5895
S'GICD'
p5896
aS'GICD'
p5897
aa(lp5898
S'GICDCCCCD'
p5899
aS'GICDCCCCD'
p5900
aa(lp5901
S'GICDCCCD'
p5902
aS'GICDCCCD'
p5903
aa(lp5904
S'GICDCCD'
p5905
aS'GICDCCD'
p5906
aa(lp5907
S'GICDCD'
p5908
aS'GICDCD'
p5909
aa(lp5910
S'GICDD'
p5911
aS'GICDD'
p5912
aa(lp5913
S'GICDDWGD'
p5914
aS'GICDDWGD'
p5915
aa(lp5916
S'GICDGD'
p5917
aS'GICDGD'
p5918
aa(lp5919
S'GICDGJCD'
p5920
aS'GICDGJCD'
p5921
aa(lp5922
S'GICDID'
p5923
aS'GICDID'
p5924
aa(lp5925
S'GICDLPD'
p5926
aS'GICDLPD'
p5927
aa(lp5928
S'GICDWCCWD'
p5929
aS'GICDWCCWD'
p5930
aa(lp5931
S'GICDWD'
p5932
aS'GICDWD'
p5933
aa(lp5934
S'GICFD'
p5935
aS'GICFD'
p5936
aa(lp5937
S'GICFID'
p5938
aS'GICFID'
p5939
aa(lp5940
S'GICGCCCCD'
p5941
aS'GICGCCCCD'
p5942
aa(lp5943
S'GICGCCD'
p5944
aS'GICGCCD'
p5945
aa(lp5946
S'GICGCD'
p5947
aS'GICGCD'
p5948
aa(lp5949
S'GICGCJICD'
p5950
aS'GICGCJICD'
p5951
aa(lp5952
S'GICGD'
p5953
aS'GICGD'
p5954
aa(lp5955
S'GICGGD'
p5956
aS'GICGGD'
p5957
aa(lp5958
S'GICGMMD'
p5959
aS'GICGMMD'
p5960
aa(lp5961
S'GICGPCJD'
p5962
aS'GICGPCJD'
p5963
aa(lp5964
S'GICICCCCCCCCPD'
p5965
aS'GICICCCCCCCCPD'
p5966
aa(lp5967
S'GICICCD'
p5968
aS'GICICCD'
p5969
aa(lp5970
S'GICICD'
p5971
aS'GICICD'
p5972
aa(lp5973
S'GICICDDGD'
p5974
aS'GICICDDGD'
p5975
aa(lp5976
S'GICICDFD'
p5977
aS'GICICDFD'
p5978
aa(lp5979
S'GICID'
p5980
aS'GICID'
p5981
aa(lp5982
S'GICIDGD'
p5983
aS'GICIDGD'
p5984
aa(lp5985
S'GICIFD'
p5986
aS'GICIFD'
p5987
aa(lp5988
S'GICIGD'
p5989
aS'GICIGD'
p5990
aa(lp5991
S'GICIID'
p5992
aS'GICIID'
p5993
aa(lp5994
S'GICIIFID'
p5995
aS'GICIIFID'
p5996
aa(lp5997
S'GICJCCD'
p5998
aS'GICJCCD'
p5999
aa(lp6000
S'GICJCD'
p6001
aS'GICJCD'
p6002
aa(lp6003
S'GICJD'
p6004
aS'GICJD'
p6005
aa(lp6006
S'GICJDD'
p6007
aS'GICJDD'
p6008
aa(lp6009
S'GICJDGD'
p6010
aS'GICJDGD'
p6011
aa(lp6012
S'GICJJD'
p6013
aS'GICJJD'
p6014
aa(lp6015
S'GICKD'
p6016
aS'GICKD'
p6017
aa(lp6018
S'GICPCCCCD'
p6019
aS'GICPCCCCD'
p6020
aa(lp6021
S'GICPCD'
p6022
aS'GICPCD'
p6023
aa(lp6024
S'GICPD'
p6025
aS'GICPD'
p6026
aa(lp6027
S'GICPICD'
p6028
aS'GICPICD'
p6029
aa(lp6030
S'GICPID'
p6031
aS'GICPID'
p6032
aa(lp6033
S'GICPIDD'
p6034
aS'GICPIDD'
p6035
aa(lp6036
S'GICPJD'
p6037
aS'GICPJD'
p6038
aa(lp6039
S'GICWCWCWD'
p6040
aS'GICWCWCWD'
p6041
aa(lp6042
S'GID'
p6043
aS'GID'
p6044
aa(lp6045
S'GIDCCCJCD'
p6046
aS'GIDCCCJCD'
p6047
aa(lp6048
S'GIDCCD'
p6049
aS'GIDCCD'
p6050
aa(lp6051
S'GIDCD'
p6052
aS'GIDCD'
p6053
aa(lp6054
S'GIDCDD'
p6055
aS'GIDCDD'
p6056
aa(lp6057
S'GIDD'
p6058
aS'GIDD'
p6059
aa(lp6060
S'GIDDCD'
p6061
aS'GIDDCD'
p6062
aa(lp6063
S'GIDDD'
p6064
aS'GIDDD'
p6065
aa(lp6066
S'GIDDGD'
p6067
aS'GIDDGD'
p6068
aa(lp6069
S'GIDDWGD'
p6070
aS'GIDDWGD'
p6071
aa(lp6072
S'GIDFCD'
p6073
aS'GIDFCD'
p6074
aa(lp6075
S'GIDGDCD'
p6076
aS'GIDGDCD'
p6077
aa(lp6078
S'GIDICCD'
p6079
aS'GIDICCD'
p6080
aa(lp6081
S'GIDID'
p6082
aS'GIDID'
p6083
aa(lp6084
S'GIDJJD'
p6085
aS'GIDJJD'
p6086
aa(lp6087
S'GIDLPCD'
p6088
aS'GIDLPCD'
p6089
aa(lp6090
S'GIFCCCD'
p6091
aS'GIFCCCD'
p6092
aa(lp6093
S'GIFCCD'
p6094
aS'GIFCCD'
p6095
aa(lp6096
S'GIFCD'
p6097
aS'GIFCD'
p6098
aa(lp6099
S'GIFCJD'
p6100
aS'GIFCJD'
p6101
aa(lp6102
S'GIFD'
p6103
aS'GIFD'
p6104
aa(lp6105
S'GIFFFWFWD'
p6106
aS'GIFFFWFWD'
p6107
aa(lp6108
S'GIFGD'
p6109
aS'GIFGD'
p6110
aa(lp6111
S'GIFICCCD'
p6112
aS'GIFICCCD'
p6113
aa(lp6114
S'GIFICD'
p6115
aS'GIFICD'
p6116
aa(lp6117
S'GIFID'
p6118
aS'GIFID'
p6119
aa(lp6120
S'GIFIDCD'
p6121
aS'GIFIDCD'
p6122
aa(lp6123
S'GIFJD'
p6124
aS'GIFJD'
p6125
aa(lp6126
S'GIFPD'
p6127
aS'GIFPD'
p6128
aa(lp6129
S'GIFPDCD'
p6130
aS'GIFPDCD'
p6131
aa(lp6132
S'GIFWFD'
p6133
aS'GIFWFD'
p6134
aa(lp6135
S'GIGCCD'
p6136
aS'GIGCCD'
p6137
aa(lp6138
S'GIGCCDMD'
p6139
aS'GIGCCDMD'
p6140
aa(lp6141
S'GIGCD'
p6142
aS'GIGCD'
p6143
aa(lp6144
S'GIGCGCD'
p6145
aS'GIGCGCD'
p6146
aa(lp6147
S'GIGCJD'
p6148
aS'GIGCJD'
p6149
aa(lp6150
S'GIGCPD'
p6151
aS'GIGCPD'
p6152
aa(lp6153
S'GIGD'
p6154
aS'GIGD'
p6155
aa(lp6156
S'GIGGCD'
p6157
aS'GIGGCD'
p6158
aa(lp6159
S'GIGGD'
p6160
aS'GIGGD'
p6161
aa(lp6162
S'GIGICD'
p6163
aS'GIGICD'
p6164
aa(lp6165
S'GIGID'
p6166
aS'GIGID'
p6167
aa(lp6168
S'GIGJD'
p6169
aS'GIGJD'
p6170
aa(lp6171
S'GIGJPCD'
p6172
aS'GIGJPCD'
p6173
aa(lp6174
S'GIGMD'
p6175
aS'GIGMD'
p6176
aa(lp6177
S'GIICCCCD'
p6178
aS'GIICCCCD'
p6179
aa(lp6180
S'GIICCCD'
p6181
aS'GIICCCD'
p6182
aa(lp6183
S'GIICCD'
p6184
aS'GIICCD'
p6185
aa(lp6186
S'GIICCDD'
p6187
aS'GIICCDD'
p6188
aa(lp6189
S'GIICCDGD'
p6190
aS'GIICCDGD'
p6191
aa(lp6192
S'GIICCDMCD'
p6193
aS'GIICCDMCD'
p6194
aa(lp6195
S'GIICD'
p6196
aS'GIICD'
p6197
aa(lp6198
S'GIICDD'
p6199
aS'GIICDD'
p6200
aa(lp6201
S'GIICID'
p6202
aS'GIICID'
p6203
aa(lp6204
S'GIID'
p6205
aS'GIID'
p6206
aa(lp6207
S'GIIDFCD'
p6208
aS'GIIDFCD'
p6209
aa(lp6210
S'GIIDGD'
p6211
aS'GIIDGD'
p6212
aa(lp6213
S'GIIDJCD'
p6214
aS'GIIDJCD'
p6215
aa(lp6216
S'GIIFICD'
p6217
aS'GIIFICD'
p6218
aa(lp6219
S'GIIGD'
p6220
aS'GIIGD'
p6221
aa(lp6222
S'GIIICCD'
p6223
aS'GIIICCD'
p6224
aa(lp6225
S'GIIID'
p6226
aS'GIIID'
p6227
aa(lp6228
S'GIIJCCCD'
p6229
aS'GIIJCCCD'
p6230
aa(lp6231
S'GIIJCD'
p6232
aS'GIIJCD'
p6233
aa(lp6234
S'GIIJD'
p6235
aS'GIIJD'
p6236
aa(lp6237
S'GIIPCD'
p6238
aS'GIIPCD'
p6239
aa(lp6240
S'GIIPD'
p6241
aS'GIIPD'
p6242
aa(lp6243
S'GIJCCCCCD'
p6244
aS'GIJCCCCCD'
p6245
aa(lp6246
S'GIJCCCCD'
p6247
aS'GIJCCCCD'
p6248
aa(lp6249
S'GIJCCCD'
p6250
aS'GIJCCCD'
p6251
aa(lp6252
S'GIJCCD'
p6253
aS'GIJCCD'
p6254
aa(lp6255
S'GIJCCDD'
p6256
aS'GIJCCDD'
p6257
aa(lp6258
S'GIJCCICD'
p6259
aS'GIJCCICD'
p6260
aa(lp6261
S'GIJCCJD'
p6262
aS'GIJCCJD'
p6263
aa(lp6264
S'GIJCD'
p6265
aS'GIJCD'
p6266
aa(lp6267
S'GIJCDCD'
p6268
aS'GIJCDCD'
p6269
aa(lp6270
S'GIJCDGD'
p6271
aS'GIJCDGD'
p6272
aa(lp6273
S'GIJCDWCFD'
p6274
aS'GIJCDWCFD'
p6275
aa(lp6276
S'GIJCPD'
p6277
aS'GIJCPD'
p6278
aa(lp6279
S'GIJD'
p6280
aS'GIJD'
p6281
aa(lp6282
S'GIJDCD'
p6283
aS'GIJDCD'
p6284
aa(lp6285
S'GIJDD'
p6286
aS'GIJDD'
p6287
aa(lp6288
S'GIJICCD'
p6289
aS'GIJICCD'
p6290
aa(lp6291
S'GIJICD'
p6292
aS'GIJICD'
p6293
aa(lp6294
S'GIJICDGD'
p6295
aS'GIJICDGD'
p6296
aa(lp6297
S'GIJID'
p6298
aS'GIJID'
p6299
aa(lp6300
S'GIJIDD'
p6301
aS'GIJIDD'
p6302
aa(lp6303
S'GIJJCCD'
p6304
aS'GIJJCCD'
p6305
aa(lp6306
S'GIJJCD'
p6307
aS'GIJJCD'
p6308
aa(lp6309
S'GIJJD'
p6310
aS'GIJJD'
p6311
aa(lp6312
S'GIJJICJD'
p6313
aS'GIJJICJD'
p6314
aa(lp6315
S'GIJLD'
p6316
aS'GIJLD'
p6317
aa(lp6318
S'GIJPCD'
p6319
aS'GIJPCD'
p6320
aa(lp6321
S'GIJPD'
p6322
aS'GIJPD'
p6323
aa(lp6324
S'GIJPDCD'
p6325
aS'GIJPDCD'
p6326
aa(lp6327
S'GIJPID'
p6328
aS'GIJPID'
p6329
aa(lp6330
S'GIKD'
p6331
aS'GIKD'
p6332
aa(lp6333
S'GILCCCCDD'
p6334
aS'GILCCCCDD'
p6335
aa(lp6336
S'GILCCD'
p6337
aS'GILCCD'
p6338
aa(lp6339
S'GILCD'
p6340
aS'GILCD'
p6341
aa(lp6342
S'GILD'
p6343
aS'GILD'
p6344
aa(lp6345
S'GILGCD'
p6346
aS'GILGCD'
p6347
aa(lp6348
S'GILID'
p6349
aS'GILID'
p6350
aa(lp6351
S'GILPMD'
p6352
aS'GILPMD'
p6353
aa(lp6354
S'GIMCCD'
p6355
aS'GIMCCD'
p6356
aa(lp6357
S'GIMCD'
p6358
aS'GIMCD'
p6359
aa(lp6360
S'GIMCID'
p6361
aS'GIMCID'
p6362
aa(lp6363
S'GIMCPD'
p6364
aS'GIMCPD'
p6365
aa(lp6366
S'GIMD'
p6367
aS'GIMD'
p6368
aa(lp6369
S'GIMJCD'
p6370
aS'GIMJCD'
p6371
aa(lp6372
S'GIMJD'
p6373
aS'GIMJD'
p6374
aa(lp6375
S'GIMPCCD'
p6376
aS'GIMPCCD'
p6377
aa(lp6378
S'GIPCCCCCD'
p6379
aS'GIPCCCCCD'
p6380
aa(lp6381
S'GIPCCCCD'
p6382
aS'GIPCCCCD'
p6383
aa(lp6384
S'GIPCCCD'
p6385
aS'GIPCCCD'
p6386
aa(lp6387
S'GIPCCCDGD'
p6388
aS'GIPCCCDGD'
p6389
aa(lp6390
S'GIPCCD'
p6391
aS'GIPCCD'
p6392
aa(lp6393
S'GIPCCDD'
p6394
aS'GIPCCDD'
p6395
aa(lp6396
S'GIPCD'
p6397
aS'GIPCD'
p6398
aa(lp6399
S'GIPCMD'
p6400
aS'GIPCMD'
p6401
aa(lp6402
S'GIPD'
p6403
aS'GIPD'
p6404
aa(lp6405
S'GIPDCCCCD'
p6406
aS'GIPDCCCCD'
p6407
aa(lp6408
S'GIPDCD'
p6409
aS'GIPDCD'
p6410
aa(lp6411
S'GIPDD'
p6412
aS'GIPDD'
p6413
aa(lp6414
S'GIPDGD'
p6415
aS'GIPDGD'
p6416
aa(lp6417
S'GIPDWCCD'
p6418
aS'GIPDWCCD'
p6419
aa(lp6420
S'GIPFD'
p6421
aS'GIPFD'
p6422
aa(lp6423
S'GIPICD'
p6424
aS'GIPICD'
p6425
aa(lp6426
S'GIPID'
p6427
aS'GIPID'
p6428
aa(lp6429
S'GIPJCCD'
p6430
aS'GIPJCCD'
p6431
aa(lp6432
S'GIPJCD'
p6433
aS'GIPJCD'
p6434
aa(lp6435
S'GIPJCDD'
p6436
aS'GIPJCDD'
p6437
aa(lp6438
S'GIPJD'
p6439
aS'GIPJD'
p6440
aa(lp6441
S'GIPPCD'
p6442
aS'GIPPCD'
p6443
aa(lp6444
S'GIPPD'
p6445
aS'GIPPD'
p6446
aa(lp6447
S'GIWDCCWCD'
p6448
aS'GIWDCCWCD'
p6449
aa(lp6450
S'GIWDWD'
p6451
aS'GIWDWD'
p6452
aa(lp6453
S'GIWGFWDGD'
p6454
aS'GIWGFWDGD'
p6455
aa(lp6456
S'GIWGWCD'
p6457
aS'GIWGWCD'
p6458
aa(lp6459
S'GIWGWDD'
p6460
aS'GIWGWDD'
p6461
aa(lp6462
S'GJCCCCCD'
p6463
aS'GJCCCCCD'
p6464
aa(lp6465
S'GJCCCCCDCD'
p6466
aS'GJCCCCCDCD'
p6467
aa(lp6468
S'GJCCCCCDD'
p6469
aS'GJCCCCCDD'
p6470
aa(lp6471
S'GJCCCCD'
p6472
aS'GJCCCCD'
p6473
aa(lp6474
S'GJCCCCDD'
p6475
aS'GJCCCCDD'
p6476
aa(lp6477
S'GJCCCD'
p6478
aS'GJCCCD'
p6479
aa(lp6480
S'GJCCCDCD'
p6481
aS'GJCCCDCD'
p6482
aa(lp6483
S'GJCCCDCDCD'
p6484
aS'GJCCCDCDCD'
p6485
aa(lp6486
S'GJCCCDD'
p6487
aS'GJCCCDD'
p6488
aa(lp6489
S'GJCCCDGCD'
p6490
aS'GJCCCDGCD'
p6491
aa(lp6492
S'GJCCCDGD'
p6493
aS'GJCCCDGD'
p6494
aa(lp6495
S'GJCCCDLD'
p6496
aS'GJCCCDLD'
p6497
aa(lp6498
S'GJCCCDWD'
p6499
aS'GJCCCDWD'
p6500
aa(lp6501
S'GJCCCPD'
p6502
aS'GJCCCPD'
p6503
aa(lp6504
S'GJCCD'
p6505
aS'GJCCD'
p6506
aa(lp6507
S'GJCCDCD'
p6508
aS'GJCCDCD'
p6509
aa(lp6510
S'GJCCDD'
p6511
aS'GJCCDD'
p6512
aa(lp6513
S'GJCCDFDD'
p6514
aS'GJCCDFDD'
p6515
aa(lp6516
S'GJCCFD'
p6517
aS'GJCCFD'
p6518
aa(lp6519
S'GJCCGJPD'
p6520
aS'GJCCGJPD'
p6521
aa(lp6522
S'GJCCICCD'
p6523
aS'GJCCICCD'
p6524
aa(lp6525
S'GJCCID'
p6526
aS'GJCCID'
p6527
aa(lp6528
S'GJCCJCD'
p6529
aS'GJCCJCD'
p6530
aa(lp6531
S'GJCCJD'
p6532
aS'GJCCJD'
p6533
aa(lp6534
S'GJCCPD'
p6535
aS'GJCCPD'
p6536
aa(lp6537
S'GJCCWKWCD'
p6538
aS'GJCCWKWCD'
p6539
aa(lp6540
S'GJCD'
p6541
aS'GJCD'
p6542
aa(lp6543
S'GJCDCCD'
p6544
aS'GJCDCCD'
p6545
aa(lp6546
S'GJCDCJCCD'
p6547
aS'GJCDCJCCD'
p6548
aa(lp6549
S'GJCDD'
p6550
aS'GJCDD'
p6551
aa(lp6552
S'GJCDJCD'
p6553
aS'GJCDJCD'
p6554
aa(lp6555
S'GJCDMCCD'
p6556
aS'GJCDMCCD'
p6557
aa(lp6558
S'GJCDPD'
p6559
aS'GJCDPD'
p6560
aa(lp6561
S'GJCGCD'
p6562
aS'GJCGCD'
p6563
aa(lp6564
S'GJCGD'
p6565
aS'GJCGD'
p6566
aa(lp6567
S'GJCGPJCCD'
p6568
aS'GJCGPJCCD'
p6569
aa(lp6570
S'GJCICCCD'
p6571
aS'GJCICCCD'
p6572
aa(lp6573
S'GJCICCD'
p6574
aS'GJCICCD'
p6575
aa(lp6576
S'GJCICD'
p6577
aS'GJCICD'
p6578
aa(lp6579
S'GJCID'
p6580
aS'GJCID'
p6581
aa(lp6582
S'GJCIWGWCCD'
p6583
aS'GJCIWGWCCD'
p6584
aa(lp6585
S'GJCJCCD'
p6586
aS'GJCJCCD'
p6587
aa(lp6588
S'GJCJCD'
p6589
aS'GJCJCD'
p6590
aa(lp6591
S'GJCJCDID'
p6592
aS'GJCJCDID'
p6593
aa(lp6594
S'GJCJD'
p6595
aS'GJCJD'
p6596
aa(lp6597
S'GJCJJCCCCD'
p6598
aS'GJCJJCCCCD'
p6599
aa(lp6600
S'GJCJJCD'
p6601
aS'GJCJJCD'
p6602
aa(lp6603
S'GJCJPD'
p6604
aS'GJCJPD'
p6605
aa(lp6606
S'GJCJPPCD'
p6607
aS'GJCJPPCD'
p6608
aa(lp6609
S'GJCKD'
p6610
aS'GJCKD'
p6611
aa(lp6612
S'GJCLCCCD'
p6613
aS'GJCLCCCD'
p6614
aa(lp6615
S'GJCLD'
p6616
aS'GJCLD'
p6617
aa(lp6618
S'GJCLJCCCD'
p6619
aS'GJCLJCCCD'
p6620
aa(lp6621
S'GJCMD'
p6622
aS'GJCMD'
p6623
aa(lp6624
S'GJCMIGD'
p6625
aS'GJCMIGD'
p6626
aa(lp6627
S'GJCMWD'
p6628
aS'GJCMWD'
p6629
aa(lp6630
S'GJCPD'
p6631
aS'GJCPD'
p6632
aa(lp6633
S'GJCPDCCD'
p6634
aS'GJCPDCCD'
p6635
aa(lp6636
S'GJCPJD'
p6637
aS'GJCPJD'
p6638
aa(lp6639
S'GJCPPD'
p6640
aS'GJCPPD'
p6641
aa(lp6642
S'GJD'
p6643
aS'GJD'
p6644
aa(lp6645
S'GJDCCCD'
p6646
aS'GJDCCCD'
p6647
aa(lp6648
S'GJDCCD'
p6649
aS'GJDCCD'
p6650
aa(lp6651
S'GJDCD'
p6652
aS'GJDCD'
p6653
aa(lp6654
S'GJDCDCD'
p6655
aS'GJDCDCD'
p6656
aa(lp6657
S'GJDD'
p6658
aS'GJDD'
p6659
aa(lp6660
S'GJDICD'
p6661
aS'GJDICD'
p6662
aa(lp6663
S'GJDID'
p6664
aS'GJDID'
p6665
aa(lp6666
S'GJDLCD'
p6667
aS'GJDLCD'
p6668
aa(lp6669
S'GJDPCD'
p6670
aS'GJDPCD'
p6671
aa(lp6672
S'GJFCCCD'
p6673
aS'GJFCCCD'
p6674
aa(lp6675
S'GJFCCD'
p6676
aS'GJFCCD'
p6677
aa(lp6678
S'GJFCCDWGCGD'
p6679
aS'GJFCCDWGCGD'
p6680
aa(lp6681
S'GJFCD'
p6682
aS'GJFCD'
p6683
aa(lp6684
S'GJFCDCD'
p6685
aS'GJFCDCD'
p6686
aa(lp6687
S'GJFCDD'
p6688
aS'GJFCDD'
p6689
aa(lp6690
S'GJFCDWFCD'
p6691
aS'GJFCDWFCD'
p6692
aa(lp6693
S'GJFD'
p6694
aS'GJFD'
p6695
aa(lp6696
S'GJFFD'
p6697
aS'GJFFD'
p6698
aa(lp6699
S'GJFGD'
p6700
aS'GJFGD'
p6701
aa(lp6702
S'GJFICD'
p6703
aS'GJFICD'
p6704
aa(lp6705
S'GJFID'
p6706
aS'GJFID'
p6707
aa(lp6708
S'GJGCCCCD'
p6709
aS'GJGCCCCD'
p6710
aa(lp6711
S'GJGCCCD'
p6712
aS'GJGCCCD'
p6713
aa(lp6714
S'GJGCCD'
p6715
aS'GJGCCD'
p6716
aa(lp6717
S'GJGCCDD'
p6718
aS'GJGCCDD'
p6719
aa(lp6720
S'GJGCCDID'
p6721
aS'GJGCCDID'
p6722
aa(lp6723
S'GJGCD'
p6724
aS'GJGCD'
p6725
aa(lp6726
S'GJGCMJD'
p6727
aS'GJGCMJD'
p6728
aa(lp6729
S'GJGD'
p6730
aS'GJGD'
p6731
aa(lp6732
S'GJGFJCD'
p6733
aS'GJGFJCD'
p6734
aa(lp6735
S'GJGJCD'
p6736
aS'GJGJCD'
p6737
aa(lp6738
S'GJGJCJCD'
p6739
aS'GJGJCJCD'
p6740
aa(lp6741
S'GJGJCKDGD'
p6742
aS'GJGJCKDGD'
p6743
aa(lp6744
S'GJGMCCD'
p6745
aS'GJGMCCD'
p6746
aa(lp6747
S'GJGPCCCD'
p6748
aS'GJGPCCCD'
p6749
aa(lp6750
S'GJGPCD'
p6751
aS'GJGPCD'
p6752
aa(lp6753
S'GJGPD'
p6754
aS'GJGPD'
p6755
aa(lp6756
S'GJICCCCD'
p6757
aS'GJICCCCD'
p6758
aa(lp6759
S'GJICCCD'
p6760
aS'GJICCCD'
p6761
aa(lp6762
S'GJICCD'
p6763
aS'GJICCD'
p6764
aa(lp6765
S'GJICCDCD'
p6766
aS'GJICCDCD'
p6767
aa(lp6768
S'GJICD'
p6769
aS'GJICD'
p6770
aa(lp6771
S'GJICDD'
p6772
aS'GJICDD'
p6773
aa(lp6774
S'GJICJD'
p6775
aS'GJICJD'
p6776
aa(lp6777
S'GJID'
p6778
aS'GJID'
p6779
aa(lp6780
S'GJIDD'
p6781
aS'GJIDD'
p6782
aa(lp6783
S'GJIDWCCCWD'
p6784
aS'GJIDWCCCWD'
p6785
aa(lp6786
S'GJIICD'
p6787
aS'GJIICD'
p6788
aa(lp6789
S'GJIID'
p6790
aS'GJIID'
p6791
aa(lp6792
S'GJIIID'
p6793
aS'GJIIID'
p6794
aa(lp6795
S'GJIJCCD'
p6796
aS'GJIJCCD'
p6797
aa(lp6798
S'GJIJCD'
p6799
aS'GJIJCD'
p6800
aa(lp6801
S'GJIJD'
p6802
aS'GJIJD'
p6803
aa(lp6804
S'GJIPD'
p6805
aS'GJIPD'
p6806
aa(lp6807
S'GJJCCCD'
p6808
aS'GJJCCCD'
p6809
aa(lp6810
S'GJJCCD'
p6811
aS'GJJCCD'
p6812
aa(lp6813
S'GJJCCDD'
p6814
aS'GJJCCDD'
p6815
aa(lp6816
S'GJJCCDGD'
p6817
aS'GJJCCDGD'
p6818
aa(lp6819
S'GJJCD'
p6820
aS'GJJCD'
p6821
aa(lp6822
S'GJJCDCCD'
p6823
aS'GJJCDCCD'
p6824
aa(lp6825
S'GJJCDCD'
p6826
aS'GJJCDCD'
p6827
aa(lp6828
S'GJJCDD'
p6829
aS'GJJCDD'
p6830
aa(lp6831
S'GJJCID'
p6832
aS'GJJCID'
p6833
aa(lp6834
S'GJJCJCCCD'
p6835
aS'GJJCJCCCD'
p6836
aa(lp6837
S'GJJCJCCD'
p6838
aS'GJJCJCCD'
p6839
aa(lp6840
S'GJJCPCD'
p6841
aS'GJJCPCD'
p6842
aa(lp6843
S'GJJCPD'
p6844
aS'GJJCPD'
p6845
aa(lp6846
S'GJJD'
p6847
aS'GJJD'
p6848
aa(lp6849
S'GJJDCD'
p6850
aS'GJJDCD'
p6851
aa(lp6852
S'GJJDD'
p6853
aS'GJJDD'
p6854
aa(lp6855
S'GJJDDCCD'
p6856
aS'GJJDDCCD'
p6857
aa(lp6858
S'GJJFCCD'
p6859
aS'GJJFCCD'
p6860
aa(lp6861
S'GJJFD'
p6862
aS'GJJFD'
p6863
aa(lp6864
S'GJJGCCCCD'
p6865
aS'GJJGCCCCD'
p6866
aa(lp6867
S'GJJGD'
p6868
aS'GJJGD'
p6869
aa(lp6870
S'GJJICCCCD'
p6871
aS'GJJICCCCD'
p6872
aa(lp6873
S'GJJICCDCD'
p6874
aS'GJJICCDCD'
p6875
aa(lp6876
S'GJJICD'
p6877
aS'GJJICD'
p6878
aa(lp6879
S'GJJID'
p6880
aS'GJJID'
p6881
aa(lp6882
S'GJJIPD'
p6883
aS'GJJIPD'
p6884
aa(lp6885
S'GJJJCD'
p6886
aS'GJJJCD'
p6887
aa(lp6888
S'GJJJD'
p6889
aS'GJJJD'
p6890
aa(lp6891
S'GJJJICD'
p6892
aS'GJJJICD'
p6893
aa(lp6894
S'GJJJJCCD'
p6895
aS'GJJJJCCD'
p6896
aa(lp6897
S'GJJJJD'
p6898
aS'GJJJJD'
p6899
aa(lp6900
S'GJJPCCCD'
p6901
aS'GJJPCCCD'
p6902
aa(lp6903
S'GJJPCCD'
p6904
aS'GJJPCCD'
p6905
aa(lp6906
S'GJJPCID'
p6907
aS'GJJPCID'
p6908
aa(lp6909
S'GJJPD'
p6910
aS'GJJPD'
p6911
aa(lp6912
S'GJJPPD'
p6913
aS'GJJPPD'
p6914
aa(lp6915
S'GJKJCD'
p6916
aS'GJKJCD'
p6917
aa(lp6918
S'GJKPD'
p6919
aS'GJKPD'
p6920
aa(lp6921
S'GJLCCCCD'
p6922
aS'GJLCCCCD'
p6923
aa(lp6924
S'GJLCD'
p6925
aS'GJLCD'
p6926
aa(lp6927
S'GJLCDD'
p6928
aS'GJLCDD'
p6929
aa(lp6930
S'GJLD'
p6931
aS'GJLD'
p6932
aa(lp6933
S'GJMCCCCD'
p6934
aS'GJMCCCCD'
p6935
aa(lp6936
S'GJMCCCD'
p6937
aS'GJMCCCD'
p6938
aa(lp6939
S'GJMCCD'
p6940
aS'GJMCCD'
p6941
aa(lp6942
S'GJMCD'
p6943
aS'GJMCD'
p6944
aa(lp6945
S'GJMD'
p6946
aS'GJMD'
p6947
aa(lp6948
S'GJMICD'
p6949
aS'GJMICD'
p6950
aa(lp6951
S'GJMJCCCCD'
p6952
aS'GJMJCCCCD'
p6953
aa(lp6954
S'GJMJCD'
p6955
aS'GJMJCD'
p6956
aa(lp6957
S'GJMPCDD'
p6958
aS'GJMPCDD'
p6959
aa(lp6960
S'GJPCCCCD'
p6961
aS'GJPCCCCD'
p6962
aa(lp6963
S'GJPCCCD'
p6964
aS'GJPCCCD'
p6965
aa(lp6966
S'GJPCCCDGD'
p6967
aS'GJPCCCDGD'
p6968
aa(lp6969
S'GJPCCD'
p6970
aS'GJPCCD'
p6971
aa(lp6972
S'GJPCCDD'
p6973
aS'GJPCCDD'
p6974
aa(lp6975
S'GJPCCDGD'
p6976
aS'GJPCCDGD'
p6977
aa(lp6978
S'GJPCCDID'
p6979
aS'GJPCCDID'
p6980
aa(lp6981
S'GJPCD'
p6982
aS'GJPCD'
p6983
aa(lp6984
S'GJPCDD'
p6985
aS'GJPCDD'
p6986
aa(lp6987
S'GJPCID'
p6988
aS'GJPCID'
p6989
aa(lp6990
S'GJPCJCD'
p6991
aS'GJPCJCD'
p6992
aa(lp6993
S'GJPCLCD'
p6994
aS'GJPCLCD'
p6995
aa(lp6996
S'GJPCMD'
p6997
aS'GJPCMD'
p6998
aa(lp6999
S'GJPD'
p7000
aS'GJPD'
p7001
aa(lp7002
S'GJPDCCD'
p7003
aS'GJPDCCD'
p7004
aa(lp7005
S'GJPDD'
p7006
aS'GJPDD'
p7007
aa(lp7008
S'GJPDDGD'
p7009
aS'GJPDDGD'
p7010
aa(lp7011
S'GJPDGD'
p7012
aS'GJPDGD'
p7013
aa(lp7014
S'GJPGCCD'
p7015
aS'GJPGCCD'
p7016
aa(lp7017
S'GJPGD'
p7018
aS'GJPGD'
p7019
aa(lp7020
S'GJPICCD'
p7021
aS'GJPICCD'
p7022
aa(lp7023
S'GJPICD'
p7024
aS'GJPICD'
p7025
aa(lp7026
S'GJPICDD'
p7027
aS'GJPICDD'
p7028
aa(lp7029
S'GJPID'
p7030
aS'GJPID'
p7031
aa(lp7032
S'GJPIDID'
p7033
aS'GJPIDID'
p7034
aa(lp7035
S'GJPJCCD'
p7036
aS'GJPJCCD'
p7037
aa(lp7038
S'GJPJCD'
p7039
aS'GJPJCD'
p7040
aa(lp7041
S'GJPJD'
p7042
aS'GJPJD'
p7043
aa(lp7044
S'GJPJMJCD'
p7045
aS'GJPJMJCD'
p7046
aa(lp7047
S'GJPJPD'
p7048
aS'GJPJPD'
p7049
aa(lp7050
S'GJPLCD'
p7051
aS'GJPLCD'
p7052
aa(lp7053
S'GJPPCCD'
p7054
aS'GJPPCCD'
p7055
aa(lp7056
S'GJPPJD'
p7057
aS'GJPPJD'
p7058
aa(lp7059
S'GJWGWCD'
p7060
aS'GJWGWCD'
p7061
aa(lp7062
S'GKCCCCD'
p7063
aS'GKCCCCD'
p7064
aa(lp7065
S'GKCCCD'
p7066
aS'GKCCCD'
p7067
aa(lp7068
S'GKCCD'
p7069
aS'GKCCD'
p7070
aa(lp7071
S'GKCCDCD'
p7072
aS'GKCCDCD'
p7073
aa(lp7074
S'GKCCDD'
p7075
aS'GKCCDD'
p7076
aa(lp7077
S'GKCCDWD'
p7078
aS'GKCCDWD'
p7079
aa(lp7080
S'GKCCPD'
p7081
aS'GKCCPD'
p7082
aa(lp7083
S'GKCD'
p7084
aS'GKCD'
p7085
aa(lp7086
S'GKCDCD'
p7087
aS'GKCDCD'
p7088
aa(lp7089
S'GKCDD'
p7090
aS'GKCDD'
p7091
aa(lp7092
S'GKCDDICD'
p7093
aS'GKCDDICD'
p7094
aa(lp7095
S'GKCDJCD'
p7096
aS'GKCDJCD'
p7097
aa(lp7098
S'GKCID'
p7099
aS'GKCID'
p7100
aa(lp7101
S'GKCJCD'
p7102
aS'GKCJCD'
p7103
aa(lp7104
S'GKCJDDWD'
p7105
aS'GKCJDDWD'
p7106
aa(lp7107
S'GKCMD'
p7108
aS'GKCMD'
p7109
aa(lp7110
S'GKCWWD'
p7111
aS'GKCWWD'
p7112
aa(lp7113
S'GKD'
p7114
aS'GKD'
p7115
aa(lp7116
S'GKDCCD'
p7117
aS'GKDCCD'
p7118
aa(lp7119
S'GKDD'
p7120
aS'GKDD'
p7121
aa(lp7122
S'GKDID'
p7123
aS'GKDID'
p7124
aa(lp7125
S'GKGDGCDD'
p7126
aS'GKGDGCDD'
p7127
aa(lp7128
S'GKGPDD'
p7129
aS'GKGPDD'
p7130
aa(lp7131
S'GKICD'
p7132
aS'GKICD'
p7133
aa(lp7134
S'GKJCCDGCD'
p7135
aS'GKJCCDGCD'
p7136
aa(lp7137
S'GKJCCID'
p7138
aS'GKJCCID'
p7139
aa(lp7140
S'GKJCD'
p7141
aS'GKJCD'
p7142
aa(lp7143
S'GKJD'
p7144
aS'GKJD'
p7145
aa(lp7146
S'GKJID'
p7147
aS'GKJID'
p7148
aa(lp7149
S'GKJIPCD'
p7150
aS'GKJIPCD'
p7151
aa(lp7152
S'GKJJD'
p7153
aS'GKJJD'
p7154
aa(lp7155
S'GKPCDFJD'
p7156
aS'GKPCDFJD'
p7157
aa(lp7158
S'GKPCJD'
p7159
aS'GKPCJD'
p7160
aa(lp7161
S'GKWD'
p7162
aS'GKWD'
p7163
aa(lp7164
S'GLCCCCCCD'
p7165
aS'GLCCCCCCD'
p7166
aa(lp7167
S'GLCCCCCID'
p7168
aS'GLCCCCCID'
p7169
aa(lp7170
S'GLCCCCD'
p7171
aS'GLCCCCD'
p7172
aa(lp7173
S'GLCCCD'
p7174
aS'GLCCCD'
p7175
aa(lp7176
S'GLCCCDD'
p7177
aS'GLCCCDD'
p7178
aa(lp7179
S'GLCCD'
p7180
aS'GLCCD'
p7181
aa(lp7182
S'GLCCDD'
p7183
aS'GLCCDD'
p7184
aa(lp7185
S'GLCCJCCCD'
p7186
aS'GLCCJCCCD'
p7187
aa(lp7188
S'GLCCJCCD'
p7189
aS'GLCCJCCD'
p7190
aa(lp7191
S'GLCD'
p7192
aS'GLCD'
p7193
aa(lp7194
S'GLCDCGCD'
p7195
aS'GLCDCGCD'
p7196
aa(lp7197
S'GLCDD'
p7198
aS'GLCDD'
p7199
aa(lp7200
S'GLCDGCCD'
p7201
aS'GLCDGCCD'
p7202
aa(lp7203
S'GLCGCJCD'
p7204
aS'GLCGCJCD'
p7205
aa(lp7206
S'GLCGD'
p7207
aS'GLCGD'
p7208
aa(lp7209
S'GLCGDD'
p7210
aS'GLCGDD'
p7211
aa(lp7212
S'GLCICD'
p7213
aS'GLCICD'
p7214
aa(lp7215
S'GLCID'
p7216
aS'GLCID'
p7217
aa(lp7218
S'GLCJD'
p7219
aS'GLCJD'
p7220
aa(lp7221
S'GLCJID'
p7222
aS'GLCJID'
p7223
aa(lp7224
S'GLCJJCCCCCD'
p7225
aS'GLCJJCCCCCD'
p7226
aa(lp7227
S'GLCLD'
p7228
aS'GLCLD'
p7229
aa(lp7230
S'GLCMCICD'
p7231
aS'GLCMCICD'
p7232
aa(lp7233
S'GLCMD'
p7234
aS'GLCMD'
p7235
aa(lp7236
S'GLCPCCD'
p7237
aS'GLCPCCD'
p7238
aa(lp7239
S'GLCPCCDGD'
p7240
aS'GLCPCCDGD'
p7241
aa(lp7242
S'GLCPD'
p7243
aS'GLCPD'
p7244
aa(lp7245
S'GLCWGWDGCD'
p7246
aS'GLCWGWDGCD'
p7247
aa(lp7248
S'GLD'
p7249
aS'GLD'
p7250
aa(lp7251
S'GLDCD'
p7252
aS'GLDCD'
p7253
aa(lp7254
S'GLDCMD'
p7255
aS'GLDCMD'
p7256
aa(lp7257
S'GLDCMDCD'
p7258
aS'GLDCMDCD'
p7259
aa(lp7260
S'GLDCMDD'
p7261
aS'GLDCMDD'
p7262
aa(lp7263
S'GLDD'
p7264
aS'GLDD'
p7265
aa(lp7266
S'GLDDCKCD'
p7267
aS'GLDDCKCD'
p7268
aa(lp7269
S'GLFCCD'
p7270
aS'GLFCCD'
p7271
aa(lp7272
S'GLFCD'
p7273
aS'GLFCD'
p7274
aa(lp7275
S'GLFCFD'
p7276
aS'GLFCFD'
p7277
aa(lp7278
S'GLFD'
p7279
aS'GLFD'
p7280
aa(lp7281
S'GLFGCD'
p7282
aS'GLFGCD'
p7283
aa(lp7284
S'GLFJJCD'
p7285
aS'GLFJJCD'
p7286
aa(lp7287
S'GLFKCCCD'
p7288
aS'GLFKCCCD'
p7289
aa(lp7290
S'GLGCCD'
p7291
aS'GLGCCD'
p7292
aa(lp7293
S'GLGCD'
p7294
aS'GLGCD'
p7295
aa(lp7296
S'GLGCDDFCD'
p7297
aS'GLGCDDFCD'
p7298
aa(lp7299
S'GLGD'
p7300
aS'GLGD'
p7301
aa(lp7302
S'GLGJCCD'
p7303
aS'GLGJCCD'
p7304
aa(lp7305
S'GLGPJD'
p7306
aS'GLGPJD'
p7307
aa(lp7308
S'GLICCCCD'
p7309
aS'GLICCCCD'
p7310
aa(lp7311
S'GLICCCD'
p7312
aS'GLICCCD'
p7313
aa(lp7314
S'GLICCD'
p7315
aS'GLICCD'
p7316
aa(lp7317
S'GLICCDD'
p7318
aS'GLICCDD'
p7319
aa(lp7320
S'GLICD'
p7321
aS'GLICD'
p7322
aa(lp7323
S'GLID'
p7324
aS'GLID'
p7325
aa(lp7326
S'GLIFD'
p7327
aS'GLIFD'
p7328
aa(lp7329
S'GLIID'
p7330
aS'GLIID'
p7331
aa(lp7332
S'GLIJD'
p7333
aS'GLIJD'
p7334
aa(lp7335
S'GLIWDWD'
p7336
aS'GLIWDWD'
p7337
aa(lp7338
S'GLJCCCD'
p7339
aS'GLJCCCD'
p7340
aa(lp7341
S'GLJCCD'
p7342
aS'GLJCCD'
p7343
aa(lp7344
S'GLJCCPCJD'
p7345
aS'GLJCCPCJD'
p7346
aa(lp7347
S'GLJCD'
p7348
aS'GLJCD'
p7349
aa(lp7350
S'GLJCDD'
p7351
aS'GLJCDD'
p7352
aa(lp7353
S'GLJCICCD'
p7354
aS'GLJCICCD'
p7355
aa(lp7356
S'GLJCID'
p7357
aS'GLJCID'
p7358
aa(lp7359
S'GLJD'
p7360
aS'GLJD'
p7361
aa(lp7362
S'GLJDCD'
p7363
aS'GLJDCD'
p7364
aa(lp7365
S'GLJFCD'
p7366
aS'GLJFCD'
p7367
aa(lp7368
S'GLJGCCD'
p7369
aS'GLJGCCD'
p7370
aa(lp7371
S'GLJGCDGD'
p7372
aS'GLJGCDGD'
p7373
aa(lp7374
S'GLJGD'
p7375
aS'GLJGD'
p7376
aa(lp7377
S'GLJICCD'
p7378
aS'GLJICCD'
p7379
aa(lp7380
S'GLJID'
p7381
aS'GLJID'
p7382
aa(lp7383
S'GLJJD'
p7384
aS'GLJJD'
p7385
aa(lp7386
S'GLJPCCD'
p7387
aS'GLJPCCD'
p7388
aa(lp7389
S'GLJPCICD'
p7390
aS'GLJPCICD'
p7391
aa(lp7392
S'GLJPJCCD'
p7393
aS'GLJPJCCD'
p7394
aa(lp7395
S'GLJWGWCD'
p7396
aS'GLJWGWCD'
p7397
aa(lp7398
S'GLKCIID'
p7399
aS'GLKCIID'
p7400
aa(lp7401
S'GLLCCCD'
p7402
aS'GLLCCCD'
p7403
aa(lp7404
S'GLLCID'
p7405
aS'GLLCID'
p7406
aa(lp7407
S'GLMCCDD'
p7408
aS'GLMCCDD'
p7409
aa(lp7410
S'GLMCD'
p7411
aS'GLMCD'
p7412
aa(lp7413
S'GLPCCCCD'
p7414
aS'GLPCCCCD'
p7415
aa(lp7416
S'GLPCCCD'
p7417
aS'GLPCCCD'
p7418
aa(lp7419
S'GLPCCD'
p7420
aS'GLPCCD'
p7421
aa(lp7422
S'GLPCCDD'
p7423
aS'GLPCCDD'
p7424
aa(lp7425
S'GLPCCDDFD'
p7426
aS'GLPCCDDFD'
p7427
aa(lp7428
S'GLPCD'
p7429
aS'GLPCD'
p7430
aa(lp7431
S'GLPCDD'
p7432
aS'GLPCDD'
p7433
aa(lp7434
S'GLPCPCCD'
p7435
aS'GLPCPCCD'
p7436
aa(lp7437
S'GLPD'
p7438
aS'GLPD'
p7439
aa(lp7440
S'GLPDD'
p7441
aS'GLPDD'
p7442
aa(lp7443
S'GLPGCD'
p7444
aS'GLPGCD'
p7445
aa(lp7446
S'GLPICD'
p7447
aS'GLPICD'
p7448
aa(lp7449
S'GLPID'
p7450
aS'GLPID'
p7451
aa(lp7452
S'GLPJCD'
p7453
aS'GLPJCD'
p7454
aa(lp7455
S'GLPJD'
p7456
aS'GLPJD'
p7457
aa(lp7458
S'GLPLJCCCD'
p7459
aS'GLPLJCCCD'
p7460
aa(lp7461
S'GLPLJCD'
p7462
aS'GLPLJCD'
p7463
aa(lp7464
S'GLPPCCCCD'
p7465
aS'GLPPCCCCD'
p7466
aa(lp7467
S'GLPPCCD'
p7468
aS'GLPPCCD'
p7469
aa(lp7470
S'GLPPCCDD'
p7471
aS'GLPPCCDD'
p7472
aa(lp7473
S'GLPPCD'
p7474
aS'GLPPCD'
p7475
aa(lp7476
S'GLPWIWD'
p7477
aS'GLPWIWD'
p7478
aa(lp7479
S'GMCCCCD'
p7480
aS'GMCCCCD'
p7481
aa(lp7482
S'GMCCCD'
p7483
aS'GMCCCD'
p7484
aa(lp7485
S'GMCCCDD'
p7486
aS'GMCCCDD'
p7487
aa(lp7488
S'GMCCD'
p7489
aS'GMCCD'
p7490
aa(lp7491
S'GMCCDCCCD'
p7492
aS'GMCCDCCCD'
p7493
aa(lp7494
S'GMCCDCMD'
p7495
aS'GMCCDCMD'
p7496
aa(lp7497
S'GMCCDMD'
p7498
aS'GMCCDMD'
p7499
aa(lp7500
S'GMCCDWD'
p7501
aS'GMCCDWD'
p7502
aa(lp7503
S'GMCCID'
p7504
aS'GMCCID'
p7505
aa(lp7506
S'GMCD'
p7507
aS'GMCD'
p7508
aa(lp7509
S'GMCDCCCD'
p7510
aS'GMCDCCCD'
p7511
aa(lp7512
S'GMCDCCD'
p7513
aS'GMCDCCD'
p7514
aa(lp7515
S'GMCDCD'
p7516
aS'GMCDCD'
p7517
aa(lp7518
S'GMCDD'
p7519
aS'GMCDD'
p7520
aa(lp7521
S'GMCDMCD'
p7522
aS'GMCDMCD'
p7523
aa(lp7524
S'GMCGD'
p7525
aS'GMCGD'
p7526
aa(lp7527
S'GMCID'
p7528
aS'GMCID'
p7529
aa(lp7530
S'GMCIID'
p7531
aS'GMCIID'
p7532
aa(lp7533
S'GMCJCD'
p7534
aS'GMCJCD'
p7535
aa(lp7536
S'GMCKCD'
p7537
aS'GMCKCD'
p7538
aa(lp7539
S'GMCMD'
p7540
aS'GMCMD'
p7541
aa(lp7542
S'GMCMJD'
p7543
aS'GMCMJD'
p7544
aa(lp7545
S'GMD'
p7546
aS'GMD'
p7547
aa(lp7548
S'GMDCD'
p7549
aS'GMDCD'
p7550
aa(lp7551
S'GMDD'
p7552
aS'GMDD'
p7553
aa(lp7554
S'GMDICD'
p7555
aS'GMDICD'
p7556
aa(lp7557
S'GMDID'
p7558
aS'GMDID'
p7559
aa(lp7560
S'GMDPDID'
p7561
aS'GMDPDID'
p7562
aa(lp7563
S'GMFCCD'
p7564
aS'GMFCCD'
p7565
aa(lp7566
S'GMFCD'
p7567
aS'GMFCD'
p7568
aa(lp7569
S'GMFCDCDGD'
p7570
aS'GMFCDCDGD'
p7571
aa(lp7572
S'GMFICD'
p7573
aS'GMFICD'
p7574
aa(lp7575
S'GMGCD'
p7576
aS'GMGCD'
p7577
aa(lp7578
S'GMGCDCD'
p7579
aS'GMGCDCD'
p7580
aa(lp7581
S'GMGJCD'
p7582
aS'GMGJCD'
p7583
aa(lp7584
S'GMGJJD'
p7585
aS'GMGJJD'
p7586
aa(lp7587
S'GMICD'
p7588
aS'GMICD'
p7589
aa(lp7590
S'GMICID'
p7591
aS'GMICID'
p7592
aa(lp7593
S'GMID'
p7594
aS'GMID'
p7595
aa(lp7596
S'GMIID'
p7597
aS'GMIID'
p7598
aa(lp7599
S'GMIPJCCD'
p7600
aS'GMIPJCCD'
p7601
aa(lp7602
S'GMJCCCD'
p7603
aS'GMJCCCD'
p7604
aa(lp7605
S'GMJCCD'
p7606
aS'GMJCCD'
p7607
aa(lp7608
S'GMJCD'
p7609
aS'GMJCD'
p7610
aa(lp7611
S'GMJD'
p7612
aS'GMJD'
p7613
aa(lp7614
S'GMJDD'
p7615
aS'GMJDD'
p7616
aa(lp7617
S'GMJICCCD'
p7618
aS'GMJICCCD'
p7619
aa(lp7620
S'GMJMJFCD'
p7621
aS'GMJMJFCD'
p7622
aa(lp7623
S'GMJPCD'
p7624
aS'GMJPCD'
p7625
aa(lp7626
S'GMJPLCCD'
p7627
aS'GMJPLCCD'
p7628
aa(lp7629
S'GMLD'
p7630
aS'GMLD'
p7631
aa(lp7632
S'GMLDCD'
p7633
aS'GMLDCD'
p7634
aa(lp7635
S'GMLGCD'
p7636
aS'GMLGCD'
p7637
aa(lp7638
S'GMLID'
p7639
aS'GMLID'
p7640
aa(lp7641
S'GMLLD'
p7642
aS'GMLLD'
p7643
aa(lp7644
S'GMMCCCD'
p7645
aS'GMMCCCD'
p7646
aa(lp7647
S'GMMCDGDD'
p7648
aS'GMMCDGDD'
p7649
aa(lp7650
S'GMMD'
p7651
aS'GMMD'
p7652
aa(lp7653
S'GMMGD'
p7654
aS'GMMGD'
p7655
aa(lp7656
S'GMMICCD'
p7657
aS'GMMICCD'
p7658
aa(lp7659
S'GMMLCCD'
p7660
aS'GMMLCCD'
p7661
aa(lp7662
S'GMMPCD'
p7663
aS'GMMPCD'
p7664
aa(lp7665
S'GMMPD'
p7666
aS'GMMPD'
p7667
aa(lp7668
S'GMPCCCD'
p7669
aS'GMPCCCD'
p7670
aa(lp7671
S'GMPCCD'
p7672
aS'GMPCCD'
p7673
aa(lp7674
S'GMPCD'
p7675
aS'GMPCD'
p7676
aa(lp7677
S'GMPD'
p7678
aS'GMPD'
p7679
aa(lp7680
S'GMPDCD'
p7681
aS'GMPDCD'
p7682
aa(lp7683
S'GMPDD'
p7684
aS'GMPDD'
p7685
aa(lp7686
S'GMPDGCD'
p7687
aS'GMPDGCD'
p7688
aa(lp7689
S'GMPFD'
p7690
aS'GMPFD'
p7691
aa(lp7692
S'GMPICD'
p7693
aS'GMPICD'
p7694
aa(lp7695
S'GMPID'
p7696
aS'GMPID'
p7697
aa(lp7698
S'GMPJCD'
p7699
aS'GMPJCD'
p7700
aa(lp7701
S'GMPMCCCD'
p7702
aS'GMPMCCCD'
p7703
aa(lp7704
S'GPCCCCCCD'
p7705
aS'GPCCCCCCD'
p7706
aa(lp7707
S'GPCCCCCD'
p7708
aS'GPCCCCCD'
p7709
aa(lp7710
S'GPCCCCD'
p7711
aS'GPCCCCD'
p7712
aa(lp7713
S'GPCCCCDGD'
p7714
aS'GPCCCCDGD'
p7715
aa(lp7716
S'GPCCCCID'
p7717
aS'GPCCCCID'
p7718
aa(lp7719
S'GPCCCD'
p7720
aS'GPCCCD'
p7721
aa(lp7722
S'GPCCCDGD'
p7723
aS'GPCCCDGD'
p7724
aa(lp7725
S'GPCCCDLD'
p7726
aS'GPCCCDLD'
p7727
aa(lp7728
S'GPCCCID'
p7729
aS'GPCCCID'
p7730
aa(lp7731
S'GPCCCPD'
p7732
aS'GPCCCPD'
p7733
aa(lp7734
S'GPCCD'
p7735
aS'GPCCD'
p7736
aa(lp7737
S'GPCCDCCD'
p7738
aS'GPCCDCCD'
p7739
aa(lp7740
S'GPCCDD'
p7741
aS'GPCCDD'
p7742
aa(lp7743
S'GPCCDDD'
p7744
aS'GPCCDDD'
p7745
aa(lp7746
S'GPCCDGD'
p7747
aS'GPCCDGD'
p7748
aa(lp7749
S'GPCCDWD'
p7750
aS'GPCCDWD'
p7751
aa(lp7752
S'GPCCGD'
p7753
aS'GPCCGD'
p7754
aa(lp7755
S'GPCCICD'
p7756
aS'GPCCICD'
p7757
aa(lp7758
S'GPCCID'
p7759
aS'GPCCID'
p7760
aa(lp7761
S'GPCCJD'
p7762
aS'GPCCJD'
p7763
aa(lp7764
S'GPCCWCWCD'
p7765
aS'GPCCWCWCD'
p7766
aa(lp7767
S'GPCD'
p7768
aS'GPCD'
p7769
aa(lp7770
S'GPCDCCD'
p7771
aS'GPCDCCD'
p7772
aa(lp7773
S'GPCDCD'
p7774
aS'GPCDCD'
p7775
aa(lp7776
S'GPCDCJD'
p7777
aS'GPCDCJD'
p7778
aa(lp7779
S'GPCDD'
p7780
aS'GPCDD'
p7781
aa(lp7782
S'GPCDDCD'
p7783
aS'GPCDDCD'
p7784
aa(lp7785
S'GPCDGFCD'
p7786
aS'GPCDGFCD'
p7787
aa(lp7788
S'GPCDIID'
p7789
aS'GPCDIID'
p7790
aa(lp7791
S'GPCFCCCDGD'
p7792
aS'GPCFCCCDGD'
p7793
aa(lp7794
S'GPCFD'
p7795
aS'GPCFD'
p7796
aa(lp7797
S'GPCFDCCD'
p7798
aS'GPCFDCCD'
p7799
aa(lp7800
S'GPCFDD'
p7801
aS'GPCFDD'
p7802
aa(lp7803
S'GPCGCD'
p7804
aS'GPCGCD'
p7805
aa(lp7806
S'GPCGD'
p7807
aS'GPCGD'
p7808
aa(lp7809
S'GPCICCD'
p7810
aS'GPCICCD'
p7811
aa(lp7812
S'GPCICD'
p7813
aS'GPCICD'
p7814
aa(lp7815
S'GPCID'
p7816
aS'GPCID'
p7817
aa(lp7818
S'GPCIDD'
p7819
aS'GPCIDD'
p7820
aa(lp7821
S'GPCIDWCWD'
p7822
aS'GPCIDWCWD'
p7823
aa(lp7824
S'GPCIID'
p7825
aS'GPCIID'
p7826
aa(lp7827
S'GPCIJCD'
p7828
aS'GPCIJCD'
p7829
aa(lp7830
S'GPCIJD'
p7831
aS'GPCIJD'
p7832
aa(lp7833
S'GPCIPD'
p7834
aS'GPCIPD'
p7835
aa(lp7836
S'GPCJCCCD'
p7837
aS'GPCJCCCD'
p7838
aa(lp7839
S'GPCJCCD'
p7840
aS'GPCJCCD'
p7841
aa(lp7842
S'GPCJCD'
p7843
aS'GPCJCD'
p7844
aa(lp7845
S'GPCJD'
p7846
aS'GPCJD'
p7847
aa(lp7848
S'GPCKD'
p7849
aS'GPCKD'
p7850
aa(lp7851
S'GPCPCD'
p7852
aS'GPCPCD'
p7853
aa(lp7854
S'GPCPCDD'
p7855
aS'GPCPCDD'
p7856
aa(lp7857
S'GPCPD'
p7858
aS'GPCPD'
p7859
aa(lp7860
S'GPCPID'
p7861
aS'GPCPID'
p7862
aa(lp7863
S'GPCWDWCD'
p7864
aS'GPCWDWCD'
p7865
aa(lp7866
S'GPCWWD'
p7867
aS'GPCWWD'
p7868
aa(lp7869
S'GPD'
p7870
aS'GPD'
p7871
aa(lp7872
S'GPDCCD'
p7873
aS'GPDCCD'
p7874
aa(lp7875
S'GPDCD'
p7876
aS'GPDCD'
p7877
aa(lp7878
S'GPDD'
p7879
aS'GPDD'
p7880
aa(lp7881
S'GPFCCD'
p7882
aS'GPFCCD'
p7883
aa(lp7884
S'GPFCCDWD'
p7885
aS'GPFCCDWD'
p7886
aa(lp7887
S'GPFCCWD'
p7888
aS'GPFCCWD'
p7889
aa(lp7890
S'GPFCD'
p7891
aS'GPFCD'
p7892
aa(lp7893
S'GPFCDD'
p7894
aS'GPFCDD'
p7895
aa(lp7896
S'GPFCWFWD'
p7897
aS'GPFCWFWD'
p7898
aa(lp7899
S'GPFD'
p7900
aS'GPFD'
p7901
aa(lp7902
S'GPFDD'
p7903
aS'GPFDD'
p7904
aa(lp7905
S'GPFFCD'
p7906
aS'GPFFCD'
p7907
aa(lp7908
S'GPFICD'
p7909
aS'GPFICD'
p7910
aa(lp7911
S'GPFIGGPCD'
p7912
aS'GPFIGGPCD'
p7913
aa(lp7914
S'GPFJCD'
p7915
aS'GPFJCD'
p7916
aa(lp7917
S'GPFJD'
p7918
aS'GPFJD'
p7919
aa(lp7920
S'GPFJDCD'
p7921
aS'GPFJDCD'
p7922
aa(lp7923
S'GPFPCDCD'
p7924
aS'GPFPCDCD'
p7925
aa(lp7926
S'GPFPD'
p7927
aS'GPFPD'
p7928
aa(lp7929
S'GPGCCCCD'
p7930
aS'GPGCCCCD'
p7931
aa(lp7932
S'GPGCCCD'
p7933
aS'GPGCCCD'
p7934
aa(lp7935
S'GPGCCD'
p7936
aS'GPGCCD'
p7937
aa(lp7938
S'GPGCD'
p7939
aS'GPGCD'
p7940
aa(lp7941
S'GPGCDWGD'
p7942
aS'GPGCDWGD'
p7943
aa(lp7944
S'GPGCGCD'
p7945
aS'GPGCGCD'
p7946
aa(lp7947
S'GPGCIICD'
p7948
aS'GPGCIICD'
p7949
aa(lp7950
S'GPGCPCCD'
p7951
aS'GPGCPCCD'
p7952
aa(lp7953
S'GPGD'
p7954
aS'GPGD'
p7955
aa(lp7956
S'GPGFFCD'
p7957
aS'GPGFFCD'
p7958
aa(lp7959
S'GPGICCD'
p7960
aS'GPGICCD'
p7961
aa(lp7962
S'GPGICD'
p7963
aS'GPGICD'
p7964
aa(lp7965
S'GPGID'
p7966
aS'GPGID'
p7967
aa(lp7968
S'GPGJCD'
p7969
aS'GPGJCD'
p7970
aa(lp7971
S'GPGJCJCCCCD'
p7972
aS'GPGJCJCCCCD'
p7973
aa(lp7974
S'GPGJD'
p7975
aS'GPGJD'
p7976
aa(lp7977
S'GPGPCGD'
p7978
aS'GPGPCGD'
p7979
aa(lp7980
S'GPGPDD'
p7981
aS'GPGPDD'
p7982
aa(lp7983
S'GPGPGJCCD'
p7984
aS'GPGPGJCCD'
p7985
aa(lp7986
S'GPGPICD'
p7987
aS'GPGPICD'
p7988
aa(lp7989
S'GPGPJD'
p7990
aS'GPGPJD'
p7991
aa(lp7992
S'GPICCCCD'
p7993
aS'GPICCCCD'
p7994
aa(lp7995
S'GPICCCCDGD'
p7996
aS'GPICCCCDGD'
p7997
aa(lp7998
S'GPICCCD'
p7999
aS'GPICCCD'
p8000
aa(lp8001
S'GPICCD'
p8002
aS'GPICCD'
p8003
aa(lp8004
S'GPICD'
p8005
aS'GPICD'
p8006
aa(lp8007
S'GPICDD'
p8008
aS'GPICDD'
p8009
aa(lp8010
S'GPICDGD'
p8011
aS'GPICDGD'
p8012
aa(lp8013
S'GPICICD'
p8014
aS'GPICICD'
p8015
aa(lp8016
S'GPID'
p8017
aS'GPID'
p8018
aa(lp8019
S'GPIDCD'
p8020
aS'GPIDCD'
p8021
aa(lp8022
S'GPIDD'
p8023
aS'GPIDD'
p8024
aa(lp8025
S'GPIDFGD'
p8026
aS'GPIDFGD'
p8027
aa(lp8028
S'GPIICD'
p8029
aS'GPIICD'
p8030
aa(lp8031
S'GPIICDGD'
p8032
aS'GPIICDGD'
p8033
aa(lp8034
S'GPIID'
p8035
aS'GPIID'
p8036
aa(lp8037
S'GPIJCCD'
p8038
aS'GPIJCCD'
p8039
aa(lp8040
S'GPIJCD'
p8041
aS'GPIJCD'
p8042
aa(lp8043
S'GPIJCDD'
p8044
aS'GPIJCDD'
p8045
aa(lp8046
S'GPIPCCCD'
p8047
aS'GPIPCCCD'
p8048
aa(lp8049
S'GPIPCCD'
p8050
aS'GPIPCCD'
p8051
aa(lp8052
S'GPJCCCCCD'
p8053
aS'GPJCCCCCD'
p8054
aa(lp8055
S'GPJCCCCD'
p8056
aS'GPJCCCCD'
p8057
aa(lp8058
S'GPJCCCD'
p8059
aS'GPJCCCD'
p8060
aa(lp8061
S'GPJCCD'
p8062
aS'GPJCCD'
p8063
aa(lp8064
S'GPJCCDD'
p8065
aS'GPJCCDD'
p8066
aa(lp8067
S'GPJCD'
p8068
aS'GPJCD'
p8069
aa(lp8070
S'GPJCDCPD'
p8071
aS'GPJCDCPD'
p8072
aa(lp8073
S'GPJCDD'
p8074
aS'GPJCDD'
p8075
aa(lp8076
S'GPJCDFD'
p8077
aS'GPJCDFD'
p8078
aa(lp8079
S'GPJCDGCD'
p8080
aS'GPJCDGCD'
p8081
aa(lp8082
S'GPJCDGD'
p8083
aS'GPJCDGD'
p8084
aa(lp8085
S'GPJCID'
p8086
aS'GPJCID'
p8087
aa(lp8088
S'GPJCIDD'
p8089
aS'GPJCIDD'
p8090
aa(lp8091
S'GPJCJCCD'
p8092
aS'GPJCJCCD'
p8093
aa(lp8094
S'GPJCJCD'
p8095
aS'GPJCJCD'
p8096
aa(lp8097
S'GPJCPCCD'
p8098
aS'GPJCPCCD'
p8099
aa(lp8100
S'GPJD'
p8101
aS'GPJD'
p8102
aa(lp8103
S'GPJDCCD'
p8104
aS'GPJDCCD'
p8105
aa(lp8106
S'GPJDCD'
p8107
aS'GPJDCD'
p8108
aa(lp8109
S'GPJDD'
p8110
aS'GPJDD'
p8111
aa(lp8112
S'GPJFCCD'
p8113
aS'GPJFCCD'
p8114
aa(lp8115
S'GPJFICD'
p8116
aS'GPJFICD'
p8117
aa(lp8118
S'GPJFID'
p8119
aS'GPJFID'
p8120
aa(lp8121
S'GPJFIDD'
p8122
aS'GPJFIDD'
p8123
aa(lp8124
S'GPJGD'
p8125
aS'GPJGD'
p8126
aa(lp8127
S'GPJICD'
p8128
aS'GPJICD'
p8129
aa(lp8130
S'GPJID'
p8131
aS'GPJID'
p8132
aa(lp8133
S'GPJJCCD'
p8134
aS'GPJJCCD'
p8135
aa(lp8136
S'GPJJCD'
p8137
aS'GPJJCD'
p8138
aa(lp8139
S'GPJLCD'
p8140
aS'GPJLCD'
p8141
aa(lp8142
S'GPJPCD'
p8143
aS'GPJPCD'
p8144
aa(lp8145
S'GPJPD'
p8146
aS'GPJPD'
p8147
aa(lp8148
S'GPJWDWD'
p8149
aS'GPJWDWD'
p8150
aa(lp8151
S'GPKD'
p8152
aS'GPKD'
p8153
aa(lp8154
S'GPLCCCCD'
p8155
aS'GPLCCCCD'
p8156
aa(lp8157
S'GPLCCD'
p8158
aS'GPLCCD'
p8159
aa(lp8160
S'GPLCD'
p8161
aS'GPLCD'
p8162
aa(lp8163
S'GPLCWCWCWD'
p8164
aS'GPLCWCWCWD'
p8165
aa(lp8166
S'GPLD'
p8167
aS'GPLD'
p8168
aa(lp8169
S'GPLICD'
p8170
aS'GPLICD'
p8171
aa(lp8172
S'GPLID'
p8173
aS'GPLID'
p8174
aa(lp8175
S'GPLJCCD'
p8176
aS'GPLJCCD'
p8177
aa(lp8178
S'GPMCCCD'
p8179
aS'GPMCCCD'
p8180
aa(lp8181
S'GPMCCD'
p8182
aS'GPMCCD'
p8183
aa(lp8184
S'GPMCD'
p8185
aS'GPMCD'
p8186
aa(lp8187
S'GPMD'
p8188
aS'GPMD'
p8189
aa(lp8190
S'GPMDJCD'
p8191
aS'GPMDJCD'
p8192
aa(lp8193
S'GPMJCGD'
p8194
aS'GPMJCGD'
p8195
aa(lp8196
S'GPMMD'
p8197
aS'GPMMD'
p8198
aa(lp8199
S'GPMPCCD'
p8200
aS'GPMPCCD'
p8201
aa(lp8202
S'GPPCCCCD'
p8203
aS'GPPCCCCD'
p8204
aa(lp8205
S'GPPCCCD'
p8206
aS'GPPCCCD'
p8207
aa(lp8208
S'GPPCCD'
p8209
aS'GPPCCD'
p8210
aa(lp8211
S'GPPCCDD'
p8212
aS'GPPCCDD'
p8213
aa(lp8214
S'GPPCCDWD'
p8215
aS'GPPCCDWD'
p8216
aa(lp8217
S'GPPCD'
p8218
aS'GPPCD'
p8219
aa(lp8220
S'GPPCDCCD'
p8221
aS'GPPCDCCD'
p8222
aa(lp8223
S'GPPCDD'
p8224
aS'GPPCDD'
p8225
aa(lp8226
S'GPPCDWCCCD'
p8227
aS'GPPCDWCCCD'
p8228
aa(lp8229
S'GPPCLD'
p8230
aS'GPPCLD'
p8231
aa(lp8232
S'GPPD'
p8233
aS'GPPD'
p8234
aa(lp8235
S'GPPDCD'
p8236
aS'GPPDCD'
p8237
aa(lp8238
S'GPPDCDD'
p8239
aS'GPPDCDD'
p8240
aa(lp8241
S'GPPDD'
p8242
aS'GPPDD'
p8243
aa(lp8244
S'GPPDDD'
p8245
aS'GPPDDD'
p8246
aa(lp8247
S'GPPFD'
p8248
aS'GPPFD'
p8249
aa(lp8250
S'GPPGCCCD'
p8251
aS'GPPGCCCD'
p8252
aa(lp8253
S'GPPGCD'
p8254
aS'GPPGCD'
p8255
aa(lp8256
S'GPPGD'
p8257
aS'GPPGD'
p8258
aa(lp8259
S'GPPGDGD'
p8260
aS'GPPGDGD'
p8261
aa(lp8262
S'GPPICCD'
p8263
aS'GPPICCD'
p8264
aa(lp8265
S'GPPICD'
p8266
aS'GPPICD'
p8267
aa(lp8268
S'GPPID'
p8269
aS'GPPID'
p8270
aa(lp8271
S'GPPIID'
p8272
aS'GPPIID'
p8273
aa(lp8274
S'GPPIJD'
p8275
aS'GPPIJD'
p8276
aa(lp8277
S'GPPJCCD'
p8278
aS'GPPJCCD'
p8279
aa(lp8280
S'GPPJCD'
p8281
aS'GPPJCD'
p8282
aa(lp8283
S'GPPJCDFCD'
p8284
aS'GPPJCDFCD'
p8285
aa(lp8286
S'GPPJD'
p8287
aS'GPPJD'
p8288
aa(lp8289
S'GPPJDCD'
p8290
aS'GPPJDCD'
p8291
aa(lp8292
S'GPPJDD'
p8293
aS'GPPJDD'
p8294
aa(lp8295
S'GPPJJCCCCD'
p8296
aS'GPPJJCCCCD'
p8297
aa(lp8298
S'GPPLD'
p8299
aS'GPPLD'
p8300
aa(lp8301
S'GPPMJCD'
p8302
aS'GPPMJCD'
p8303
aa(lp8304
S'GPPPCCD'
p8305
aS'GPPPCCD'
p8306
aa(lp8307
S'GPPPCD'
p8308
aS'GPPPCD'
p8309
aa(lp8310
S'GPPPCKCCD'
p8311
aS'GPPPCKCCD'
p8312
aa(lp8313
S'GPPPICD'
p8314
aS'GPPPICD'
p8315
aa(lp8316
S'GPPPPCCD'
p8317
aS'GPPPPCCD'
p8318
aa(lp8319
S'GPWCCD'
p8320
aS'GPWCCD'
p8321
aa(lp8322
S'GPWGWCDGD'
p8323
aS'GPWGWCDGD'
p8324
aa(lp8325
S'GWCCCCD'
p8326
aS'GWCCCCD'
p8327
aa(lp8328
S'GWCPWD'
p8329
aS'GWCPWD'
p8330
aa(lp8331
S'GWCWCCCD'
p8332
aS'GWCWCCCD'
p8333
aa(lp8334
S'GWCWCD'
p8335
aS'GWCWCD'
p8336
aa(lp8337
S'GWCWD'
p8338
aS'GWCWD'
p8339
aa(lp8340
S'GWCWJD'
p8341
aS'GWCWJD'
p8342
aa(lp8343
S'GWCWPJCD'
p8344
aS'GWCWPJCD'
p8345
aa(lp8346
S'GWD'
p8347
aS'GWD'
p8348
aa(lp8349
S'GWFCD'
p8350
aS'GWFCD'
p8351
aa(lp8352
S'GWGCCCD'
p8353
aS'GWGCCCD'
p8354
aa(lp8355
S'GWGCCD'
p8356
aS'GWGCCD'
p8357
aa(lp8358
S'GWGCCWCD'
p8359
aS'GWGCCWCD'
p8360
aa(lp8361
S'GWGCD'
p8362
aS'GWGCD'
p8363
aa(lp8364
S'GWGCWD'
p8365
aS'GWGCWD'
p8366
aa(lp8367
S'GWGD'
p8368
aS'GWGD'
p8369
aa(lp8370
S'GWGID'
p8371
aS'GWGID'
p8372
aa(lp8373
S'GWGPPD'
p8374
aS'GWGPPD'
p8375
aa(lp8376
S'GWGWCCCCD'
p8377
aS'GWGWCCCCD'
p8378
aa(lp8379
S'GWGWCCCD'
p8380
aS'GWGWCCCD'
p8381
aa(lp8382
S'GWGWCCD'
p8383
aS'GWGWCCD'
p8384
aa(lp8385
S'GWGWCD'
p8386
aS'GWGWCD'
p8387
aa(lp8388
S'GWGWICD'
p8389
aS'GWGWICD'
p8390
aa(lp8391
S'GWGWLCD'
p8392
aS'GWGWLCD'
p8393
aa(lp8394
S'GWICCD'
p8395
aS'GWICCD'
p8396
aa(lp8397
S'GWICD'
p8398
aS'GWICD'
p8399
aa(lp8400
S'GWICWD'
p8401
aS'GWICWD'
p8402
aa(lp8403
S'GWIWD'
p8404
aS'GWIWD'
p8405
aa(lp8406
S'GWJD'
p8407
aS'GWJD'
p8408
aa(lp8409
S'GWJWD'
p8410
aS'GWJWD'
p8411
aa(lp8412
S'GWLJWCD'
p8413
aS'GWLJWCD'
p8414
aa(lp8415
S'GWPCPWD'
p8416
aS'GWPCPWD'
p8417
aa(lp8418
S'GWPD'
p8419
aS'GWPD'
p8420
aa(lp8421
S'GWPJD'
p8422
aS'GWPJD'
p8423
aa(lp8424
S'ICCCCCCD'
p8425
aS'ICCCCCCD'
p8426
aa(lp8427
S'ICCCCCD'
p8428
aS'ICCCCCD'
p8429
aa(lp8430
S'ICCCCD'
p8431
aS'ICCCCD'
p8432
aa(lp8433
S'ICCCCDD'
p8434
aS'ICCCCDD'
p8435
aa(lp8436
S'ICCCD'
p8437
aS'ICCCD'
p8438
aa(lp8439
S'ICCCDFPCCFGCCD'
p8440
aS'ICCCDFPCCFGCCD'
p8441
aa(lp8442
S'ICCCDGD'
p8443
aS'ICCCDGD'
p8444
aa(lp8445
S'ICCCDGJD'
p8446
aS'ICCCDGJD'
p8447
aa(lp8448
S'ICCCID'
p8449
aS'ICCCID'
p8450
aa(lp8451
S'ICCCWGWD'
p8452
aS'ICCCWGWD'
p8453
aa(lp8454
S'ICCCWGWDGD'
p8455
aS'ICCCWGWDGD'
p8456
aa(lp8457
S'ICCD'
p8458
aS'ICCD'
p8459
aa(lp8460
S'ICCDCCD'
p8461
aS'ICCDCCD'
p8462
aa(lp8463
S'ICCDCD'
p8464
aS'ICCDCD'
p8465
aa(lp8466
S'ICCDD'
p8467
aS'ICCDD'
p8468
aa(lp8469
S'ICCFJCWGFJCCD'
p8470
aS'ICCFJCWGFJCCD'
p8471
aa(lp8472
S'ICCGCCD'
p8473
aS'ICCGCCD'
p8474
aa(lp8475
S'ICCGCIPD'
p8476
aS'ICCGCIPD'
p8477
aa(lp8478
S'ICCGD'
p8479
aS'ICCGD'
p8480
aa(lp8481
S'ICCICCD'
p8482
aS'ICCICCD'
p8483
aa(lp8484
S'ICCJD'
p8485
aS'ICCJD'
p8486
aa(lp8487
S'ICCPD'
p8488
aS'ICCPD'
p8489
aa(lp8490
S'ICCWDWCD'
p8491
aS'ICCWDWCD'
p8492
aa(lp8493
S'ICCWGWD'
p8494
aS'ICCWGWD'
p8495
aa(lp8496
S'ICD'
p8497
aS'ICD'
p8498
aa(lp8499
S'ICDCCCCD'
p8500
aS'ICDCCCCD'
p8501
aa(lp8502
S'ICDCDCD'
p8503
aS'ICDCDCD'
p8504
aa(lp8505
S'ICDD'
p8506
aS'ICDD'
p8507
aa(lp8508
S'ICDGD'
p8509
aS'ICDGD'
p8510
aa(lp8511
S'ICDID'
p8512
aS'ICDID'
p8513
aa(lp8514
S'ICDWGD'
p8515
aS'ICDWGD'
p8516
aa(lp8517
S'ICFCD'
p8518
aS'ICFCD'
p8519
aa(lp8520
S'ICFCJCD'
p8521
aS'ICFCJCD'
p8522
aa(lp8523
S'ICFD'
p8524
aS'ICFD'
p8525
aa(lp8526
S'ICFDID'
p8527
aS'ICFDID'
p8528
aa(lp8529
S'ICGCCCD'
p8530
aS'ICGCCCD'
p8531
aa(lp8532
S'ICGCD'
p8533
aS'ICGCD'
p8534
aa(lp8535
S'ICGD'
p8536
aS'ICGD'
p8537
aa(lp8538
S'ICGFD'
p8539
aS'ICGFD'
p8540
aa(lp8541
S'ICGGCD'
p8542
aS'ICGGCD'
p8543
aa(lp8544
S'ICGGD'
p8545
aS'ICGGD'
p8546
aa(lp8547
S'ICGLCMD'
p8548
aS'ICGLCMD'
p8549
aa(lp8550
S'ICICCD'
p8551
aS'ICICCD'
p8552
aa(lp8553
S'ICICD'
p8554
aS'ICICD'
p8555
aa(lp8556
S'ICID'
p8557
aS'ICID'
p8558
aa(lp8559
S'ICIDWID'
p8560
aS'ICIDWID'
p8561
aa(lp8562
S'ICIGD'
p8563
aS'ICIGD'
p8564
aa(lp8565
S'ICIWD'
p8566
aS'ICIWD'
p8567
aa(lp8568
S'ICJCCD'
p8569
aS'ICJCCD'
p8570
aa(lp8571
S'ICJCD'
p8572
aS'ICJCD'
p8573
aa(lp8574
S'ICJD'
p8575
aS'ICJD'
p8576
aa(lp8577
S'ICJJD'
p8578
aS'ICJJD'
p8579
aa(lp8580
S'ICJWGWCCD'
p8581
aS'ICJWGWCCD'
p8582
aa(lp8583
S'ICLJCD'
p8584
aS'ICLJCD'
p8585
aa(lp8586
S'ICMCCCCD'
p8587
aS'ICMCCCCD'
p8588
aa(lp8589
S'ICMD'
p8590
aS'ICMD'
p8591
aa(lp8592
S'ICPCD'
p8593
aS'ICPCD'
p8594
aa(lp8595
S'ICPD'
p8596
aS'ICPD'
p8597
aa(lp8598
S'ICPPD'
p8599
aS'ICPPD'
p8600
aa(lp8601
S'ICWGWCD'
p8602
aS'ICWGWCD'
p8603
aa(lp8604
S'ICWGWD'
p8605
aS'ICWGWD'
p8606
aa(lp8607
S'ICWGWDCD'
p8608
aS'ICWGWDCD'
p8609
aa(lp8610
S'ICWGWDD'
p8611
aS'ICWGWDD'
p8612
aa(lp8613
S'ID'
p8614
aS'ID'
p8615
aa(lp8616
S'IDCCCCD'
p8617
aS'IDCCCCD'
p8618
aa(lp8619
S'IDCCCD'
p8620
aS'IDCCCD'
p8621
aa(lp8622
S'IDCCD'
p8623
aS'IDCCD'
p8624
aa(lp8625
S'IDCCGJID'
p8626
aS'IDCCGJID'
p8627
aa(lp8628
S'IDCCICD'
p8629
aS'IDCCICD'
p8630
aa(lp8631
S'IDCCICDID'
p8632
aS'IDCCICDID'
p8633
aa(lp8634
S'IDCD'
p8635
aS'IDCD'
p8636
aa(lp8637
S'IDCDCD'
p8638
aS'IDCDCD'
p8639
aa(lp8640
S'IDCDD'
p8641
aS'IDCDD'
p8642
aa(lp8643
S'IDCFCD'
p8644
aS'IDCFCD'
p8645
aa(lp8646
S'IDCGD'
p8647
aS'IDCGD'
p8648
aa(lp8649
S'IDCICD'
p8650
aS'IDCICD'
p8651
aa(lp8652
S'IDCID'
p8653
aS'IDCID'
p8654
aa(lp8655
S'IDCJD'
p8656
aS'IDCJD'
p8657
aa(lp8658
S'IDCPCCCCCCD'
p8659
aS'IDCPCCCCCCD'
p8660
aa(lp8661
S'IDD'
p8662
aS'IDD'
p8663
aa(lp8664
S'IDDGCD'
p8665
aS'IDDGCD'
p8666
aa(lp8667
S'IDGCCCD'
p8668
aS'IDGCCCD'
p8669
aa(lp8670
S'IDGCD'
p8671
aS'IDGCD'
p8672
aa(lp8673
S'IDGD'
p8674
aS'IDGD'
p8675
aa(lp8676
S'IDID'
p8677
aS'IDID'
p8678
aa(lp8679
S'IDIDD'
p8680
aS'IDIDD'
p8681
aa(lp8682
S'IDJCD'
p8683
aS'IDJCD'
p8684
aa(lp8685
S'IDKCD'
p8686
aS'IDKCD'
p8687
aa(lp8688
S'IDPD'
p8689
aS'IDPD'
p8690
aa(lp8691
S'IDWCWCCDD'
p8692
aS'IDWCWCCDD'
p8693
aa(lp8694
S'IFCD'
p8695
aS'IFCD'
p8696
aa(lp8697
S'IFCICCDGD'
p8698
aS'IFCICCDGD'
p8699
aa(lp8700
S'IFD'
p8701
aS'IFD'
p8702
aa(lp8703
S'IFGD'
p8704
aS'IFGD'
p8705
aa(lp8706
S'IFICCD'
p8707
aS'IFICCD'
p8708
aa(lp8709
S'IFIDWGD'
p8710
aS'IFIDWGD'
p8711
aa(lp8712
S'IFKD'
p8713
aS'IFKD'
p8714
aa(lp8715
S'IFWGWCD'
p8716
aS'IFWGWCD'
p8717
aa(lp8718
S'IGCCCCDCCD'
p8719
aS'IGCCCCDCCD'
p8720
aa(lp8721
S'IGCCCD'
p8722
aS'IGCCCD'
p8723
aa(lp8724
S'IGCCCDD'
p8725
aS'IGCCCDD'
p8726
aa(lp8727
S'IGCCD'
p8728
aS'IGCCD'
p8729
aa(lp8730
S'IGCD'
p8731
aS'IGCD'
p8732
aa(lp8733
S'IGCDCD'
p8734
aS'IGCDCD'
p8735
aa(lp8736
S'IGCDD'
p8737
aS'IGCDD'
p8738
aa(lp8739
S'IGCGCCD'
p8740
aS'IGCGCCD'
p8741
aa(lp8742
S'IGCGCD'
p8743
aS'IGCGCD'
p8744
aa(lp8745
S'IGCID'
p8746
aS'IGCID'
p8747
aa(lp8748
S'IGCJD'
p8749
aS'IGCJD'
p8750
aa(lp8751
S'IGCPD'
p8752
aS'IGCPD'
p8753
aa(lp8754
S'IGCWJWD'
p8755
aS'IGCWJWD'
p8756
aa(lp8757
S'IGD'
p8758
aS'IGD'
p8759
aa(lp8760
S'IGDD'
p8761
aS'IGDD'
p8762
aa(lp8763
S'IGFCCD'
p8764
aS'IGFCCD'
p8765
aa(lp8766
S'IGFCD'
p8767
aS'IGFCD'
p8768
aa(lp8769
S'IGFD'
p8770
aS'IGFD'
p8771
aa(lp8772
S'IGFGJCGDD'
p8773
aS'IGFGJCGDD'
p8774
aa(lp8775
S'IGGCD'
p8776
aS'IGGCD'
p8777
aa(lp8778
S'IGGDFCD'
p8779
aS'IGGDFCD'
p8780
aa(lp8781
S'IGGPCGCD'
p8782
aS'IGGPCGCD'
p8783
aa(lp8784
S'IGICCD'
p8785
aS'IGICCD'
p8786
aa(lp8787
S'IGID'
p8788
aS'IGID'
p8789
aa(lp8790
S'IGJD'
p8791
aS'IGJD'
p8792
aa(lp8793
S'IGLCD'
p8794
aS'IGLCD'
p8795
aa(lp8796
S'IGLD'
p8797
aS'IGLD'
p8798
aa(lp8799
S'IGPCD'
p8800
aS'IGPCD'
p8801
aa(lp8802
S'IGPCDD'
p8803
aS'IGPCDD'
p8804
aa(lp8805
S'IICCCD'
p8806
aS'IICCCD'
p8807
aa(lp8808
S'IICCD'
p8809
aS'IICCD'
p8810
aa(lp8811
S'IICD'
p8812
aS'IICD'
p8813
aa(lp8814
S'IICGD'
p8815
aS'IICGD'
p8816
aa(lp8817
S'IID'
p8818
aS'IID'
p8819
aa(lp8820
S'IIGCD'
p8821
aS'IIGCD'
p8822
aa(lp8823
S'IIGD'
p8824
aS'IIGD'
p8825
aa(lp8826
S'IIGJCJCD'
p8827
aS'IIGJCJCD'
p8828
aa(lp8829
S'IIICD'
p8830
aS'IIICD'
p8831
aa(lp8832
S'IIID'
p8833
aS'IIID'
p8834
aa(lp8835
S'IIIGCD'
p8836
aS'IIIGCD'
p8837
aa(lp8838
S'IIJD'
p8839
aS'IIJD'
p8840
aa(lp8841
S'IIPCD'
p8842
aS'IIPCD'
p8843
aa(lp8844
S'IIWGWCD'
p8845
aS'IIWGWCD'
p8846
aa(lp8847
S'IIWGWD'
p8848
aS'IIWGWD'
p8849
aa(lp8850
S'IJCCCCD'
p8851
aS'IJCCCCD'
p8852
aa(lp8853
S'IJCCCD'
p8854
aS'IJCCCD'
p8855
aa(lp8856
S'IJCCD'
p8857
aS'IJCCD'
p8858
aa(lp8859
S'IJCCDGD'
p8860
aS'IJCCDGD'
p8861
aa(lp8862
S'IJCCWGWD'
p8863
aS'IJCCWGWD'
p8864
aa(lp8865
S'IJCD'
p8866
aS'IJCD'
p8867
aa(lp8868
S'IJCDCCD'
p8869
aS'IJCDCCD'
p8870
aa(lp8871
S'IJCDD'
p8872
aS'IJCDD'
p8873
aa(lp8874
S'IJD'
p8875
aS'IJD'
p8876
aa(lp8877
S'IJDCCD'
p8878
aS'IJDCCD'
p8879
aa(lp8880
S'IJDD'
p8881
aS'IJDD'
p8882
aa(lp8883
S'IJGCCD'
p8884
aS'IJGCCD'
p8885
aa(lp8886
S'IJGCD'
p8887
aS'IJGCD'
p8888
aa(lp8889
S'IJGD'
p8890
aS'IJGD'
p8891
aa(lp8892
S'IJJCD'
p8893
aS'IJJCD'
p8894
aa(lp8895
S'IJJD'
p8896
aS'IJJD'
p8897
aa(lp8898
S'IJJJCD'
p8899
aS'IJJJCD'
p8900
aa(lp8901
S'IJPCCD'
p8902
aS'IJPCCD'
p8903
aa(lp8904
S'IJPCD'
p8905
aS'IJPCD'
p8906
aa(lp8907
S'IJPCDD'
p8908
aS'IJPCDD'
p8909
aa(lp8910
S'IJWCFIWGD'
p8911
aS'IJWCFIWGD'
p8912
aa(lp8913
S'IJWCFWD'
p8914
aS'IJWCFWD'
p8915
aa(lp8916
S'IJWCPWGD'
p8917
aS'IJWCPWGD'
p8918
aa(lp8919
S'IKCCCD'
p8920
aS'IKCCCD'
p8921
aa(lp8922
S'IKCD'
p8923
aS'IKCD'
p8924
aa(lp8925
S'ILCD'
p8926
aS'ILCD'
p8927
aa(lp8928
S'ILD'
p8929
aS'ILD'
p8930
aa(lp8931
S'ILPCD'
p8932
aS'ILPCD'
p8933
aa(lp8934
S'ILPMD'
p8935
aS'ILPMD'
p8936
aa(lp8937
S'IMCCCCD'
p8938
aS'IMCCCCD'
p8939
aa(lp8940
S'IMCCD'
p8941
aS'IMCCD'
p8942
aa(lp8943
S'IMCD'
p8944
aS'IMCD'
p8945
aa(lp8946
S'IMD'
p8947
aS'IMD'
p8948
aa(lp8949
S'IMPD'
p8950
aS'IMPD'
p8951
aa(lp8952
S'IPCCCCD'
p8953
aS'IPCCCCD'
p8954
aa(lp8955
S'IPCCCD'
p8956
aS'IPCCCD'
p8957
aa(lp8958
S'IPCCD'
p8959
aS'IPCCD'
p8960
aa(lp8961
S'IPCCID'
p8962
aS'IPCCID'
p8963
aa(lp8964
S'IPCCJD'
p8965
aS'IPCCJD'
p8966
aa(lp8967
S'IPCD'
p8968
aS'IPCD'
p8969
aa(lp8970
S'IPCGD'
p8971
aS'IPCGD'
p8972
aa(lp8973
S'IPCID'
p8974
aS'IPCID'
p8975
aa(lp8976
S'IPCJD'
p8977
aS'IPCJD'
p8978
aa(lp8979
S'IPCPD'
p8980
aS'IPCPD'
p8981
aa(lp8982
S'IPD'
p8983
aS'IPD'
p8984
aa(lp8985
S'IPFCD'
p8986
aS'IPFCD'
p8987
aa(lp8988
S'IPFD'
p8989
aS'IPFD'
p8990
aa(lp8991
S'IPID'
p8992
aS'IPID'
p8993
aa(lp8994
S'IPIJD'
p8995
aS'IPIJD'
p8996
aa(lp8997
S'IPJCD'
p8998
aS'IPJCD'
p8999
aa(lp9000
S'IPJCGD'
p9001
aS'IPJCGD'
p9002
aa(lp9003
S'IPJD'
p9004
aS'IPJD'
p9005
aa(lp9006
S'IPPCD'
p9007
aS'IPPCD'
p9008
aa(lp9009
S'IPPD'
p9010
aS'IPPD'
p9011
aa(lp9012
S'IPPDCD'
p9013
aS'IPPDCD'
p9014
aa(lp9015
S'IPPJCD'
p9016
aS'IPPJCD'
p9017
aa(lp9018
S'IPWGWCCD'
p9019
aS'IPWGWCCD'
p9020
aa(lp9021
S'IPWGWCD'
p9022
aS'IPWGWCD'
p9023
aa(lp9024
S'IWGMFCCDGD'
p9025
aS'IWGMFCCDGD'
p9026
aa(lp9027
S'IWGWCCD'
p9028
aS'IWGWCCD'
p9029
aa(lp9030
S'IWGWCD'
p9031
aS'IWGWCD'
p9032
aa(lp9033
S'IWGWD'
p9034
aS'IWGWD'
p9035
aa(lp9036
S'IWGWID'
p9037
aS'IWGWID'
p9038
aa(lp9039
S'JCCCCCCD'
p9040
aS'JCCCCCCD'
p9041
aa(lp9042
S'JCCCCCD'
p9043
aS'JCCCCCD'
p9044
aa(lp9045
S'JCCCCD'
p9046
aS'JCCCCD'
p9047
aa(lp9048
S'JCCCD'
p9049
aS'JCCCD'
p9050
aa(lp9051
S'JCCCJCD'
p9052
aS'JCCCJCD'
p9053
aa(lp9054
S'JCCCWFWD'
p9055
aS'JCCCWFWD'
p9056
aa(lp9057
S'JCCD'
p9058
aS'JCCD'
p9059
aa(lp9060
S'JCCGD'
p9061
aS'JCCGD'
p9062
aa(lp9063
S'JCCID'
p9064
aS'JCCID'
p9065
aa(lp9066
S'JCCJD'
p9067
aS'JCCJD'
p9068
aa(lp9069
S'JCCMCD'
p9070
aS'JCCMCD'
p9071
aa(lp9072
S'JCCPD'
p9073
aS'JCCPD'
p9074
aa(lp9075
S'JCCWGWD'
p9076
aS'JCCWGWD'
p9077
aa(lp9078
S'JCD'
p9079
aS'JCD'
p9080
aa(lp9081
S'JCDCCD'
p9082
aS'JCDCCD'
p9083
aa(lp9084
S'JCDCD'
p9085
aS'JCDCD'
p9086
aa(lp9087
S'JCDCWMWMWCCCD'
p9088
aS'JCDCWMWMWCCCD'
p9089
aa(lp9090
S'JCDD'
p9091
aS'JCDD'
p9092
aa(lp9093
S'JCDDWD'
p9094
aS'JCDDWD'
p9095
aa(lp9096
S'JCDID'
p9097
aS'JCDID'
p9098
aa(lp9099
S'JCFCD'
p9100
aS'JCFCD'
p9101
aa(lp9102
S'JCGCCCCD'
p9103
aS'JCGCCCCD'
p9104
aa(lp9105
S'JCGCCCD'
p9106
aS'JCGCCCD'
p9107
aa(lp9108
S'JCGCCD'
p9109
aS'JCGCCD'
p9110
aa(lp9111
S'JCGCD'
p9112
aS'JCGCD'
p9113
aa(lp9114
S'JCGD'
p9115
aS'JCGD'
p9116
aa(lp9117
S'JCGDWCPWD'
p9118
aS'JCGDWCPWD'
p9119
aa(lp9120
S'JCGJGD'
p9121
aS'JCGJGD'
p9122
aa(lp9123
S'JCICCCD'
p9124
aS'JCICCCD'
p9125
aa(lp9126
S'JCID'
p9127
aS'JCID'
p9128
aa(lp9129
S'JCIDD'
p9130
aS'JCIDD'
p9131
aa(lp9132
S'JCIDGD'
p9133
aS'JCIDGD'
p9134
aa(lp9135
S'JCIWGWD'
p9136
aS'JCIWGWD'
p9137
aa(lp9138
S'JCJCCCD'
p9139
aS'JCJCCCD'
p9140
aa(lp9141
S'JCJCCD'
p9142
aS'JCJCCD'
p9143
aa(lp9144
S'JCJCD'
p9145
aS'JCJCD'
p9146
aa(lp9147
S'JCJD'
p9148
aS'JCJD'
p9149
aa(lp9150
S'JCJDD'
p9151
aS'JCJDD'
p9152
aa(lp9153
S'JCJFD'
p9154
aS'JCJFD'
p9155
aa(lp9156
S'JCJGCD'
p9157
aS'JCJGCD'
p9158
aa(lp9159
S'JCJJPCD'
p9160
aS'JCJJPCD'
p9161
aa(lp9162
S'JCJPID'
p9163
aS'JCJPID'
p9164
aa(lp9165
S'JCJWGWD'
p9166
aS'JCJWGWD'
p9167
aa(lp9168
S'JCLD'
p9169
aS'JCLD'
p9170
aa(lp9171
S'JCMD'
p9172
aS'JCMD'
p9173
aa(lp9174
S'JCMPD'
p9175
aS'JCMPD'
p9176
aa(lp9177
S'JCPCD'
p9178
aS'JCPCD'
p9179
aa(lp9180
S'JCPJCID'
p9181
aS'JCPJCID'
p9182
aa(lp9183
S'JCPJJCD'
p9184
aS'JCPJJCD'
p9185
aa(lp9186
S'JCPPCCCD'
p9187
aS'JCPPCCCD'
p9188
aa(lp9189
S'JCWGWCDWD'
p9190
aS'JCWGWCDWD'
p9191
aa(lp9192
S'JD'
p9193
aS'JD'
p9194
aa(lp9195
S'JDCD'
p9196
aS'JDCD'
p9197
aa(lp9198
S'JDCMD'
p9199
aS'JDCMD'
p9200
aa(lp9201
S'JDD'
p9202
aS'JDD'
p9203
aa(lp9204
S'JDGCCD'
p9205
aS'JDGCCD'
p9206
aa(lp9207
S'JDGD'
p9208
aS'JDGD'
p9209
aa(lp9210
S'JDID'
p9211
aS'JDID'
p9212
aa(lp9213
S'JDJD'
p9214
aS'JDJD'
p9215
aa(lp9216
S'JDMD'
p9217
aS'JDMD'
p9218
aa(lp9219
S'JDWGWCD'
p9220
aS'JDWGWCD'
p9221
aa(lp9222
S'JFCCD'
p9223
aS'JFCCD'
p9224
aa(lp9225
S'JFCCWGWDD'
p9226
aS'JFCCWGWDD'
p9227
aa(lp9228
S'JFCD'
p9229
aS'JFCD'
p9230
aa(lp9231
S'JFD'
p9232
aS'JFD'
p9233
aa(lp9234
S'JFID'
p9235
aS'JFID'
p9236
aa(lp9237
S'JFJCCD'
p9238
aS'JFJCCD'
p9239
aa(lp9240
S'JGCCCD'
p9241
aS'JGCCCD'
p9242
aa(lp9243
S'JGCCD'
p9244
aS'JGCCD'
p9245
aa(lp9246
S'JGCCGCD'
p9247
aS'JGCCGCD'
p9248
aa(lp9249
S'JGCD'
p9250
aS'JGCD'
p9251
aa(lp9252
S'JGCDFCD'
p9253
aS'JGCDFCD'
p9254
aa(lp9255
S'JGCFCCCD'
p9256
aS'JGCFCCCD'
p9257
aa(lp9258
S'JGD'
p9259
aS'JGD'
p9260
aa(lp9261
S'JGDCJD'
p9262
aS'JGDCJD'
p9263
aa(lp9264
S'JGFD'
p9265
aS'JGFD'
p9266
aa(lp9267
S'JGGD'
p9268
aS'JGGD'
p9269
aa(lp9270
S'JGICD'
p9271
aS'JGICD'
p9272
aa(lp9273
S'JGID'
p9274
aS'JGID'
p9275
aa(lp9276
S'JGJDCD'
p9277
aS'JGJDCD'
p9278
aa(lp9279
S'JGMCCD'
p9280
aS'JGMCCD'
p9281
aa(lp9282
S'JGPCCD'
p9283
aS'JGPCCD'
p9284
aa(lp9285
S'JGPD'
p9286
aS'JGPD'
p9287
aa(lp9288
S'JICCCD'
p9289
aS'JICCCD'
p9290
aa(lp9291
S'JICCD'
p9292
aS'JICCD'
p9293
aa(lp9294
S'JICD'
p9295
aS'JICD'
p9296
aa(lp9297
S'JID'
p9298
aS'JID'
p9299
aa(lp9300
S'JIDD'
p9301
aS'JIDD'
p9302
aa(lp9303
S'JIGPCD'
p9304
aS'JIGPCD'
p9305
aa(lp9306
S'JIICD'
p9307
aS'JIICD'
p9308
aa(lp9309
S'JIID'
p9310
aS'JIID'
p9311
aa(lp9312
S'JIJD'
p9313
aS'JIJD'
p9314
aa(lp9315
S'JILD'
p9316
aS'JILD'
p9317
aa(lp9318
S'JIPCD'
p9319
aS'JIPCD'
p9320
aa(lp9321
S'JJCCCD'
p9322
aS'JJCCCD'
p9323
aa(lp9324
S'JJCCCDGD'
p9325
aS'JJCCCDGD'
p9326
aa(lp9327
S'JJCCD'
p9328
aS'JJCCD'
p9329
aa(lp9330
S'JJCCJD'
p9331
aS'JJCCJD'
p9332
aa(lp9333
S'JJCCPGD'
p9334
aS'JJCCPGD'
p9335
aa(lp9336
S'JJCD'
p9337
aS'JJCD'
p9338
aa(lp9339
S'JJCGD'
p9340
aS'JJCGD'
p9341
aa(lp9342
S'JJCID'
p9343
aS'JJCID'
p9344
aa(lp9345
S'JJCWGWCCDFGCD'
p9346
aS'JJCWGWCCDFGCD'
p9347
aa(lp9348
S'JJCWGWD'
p9349
aS'JJCWGWD'
p9350
aa(lp9351
S'JJD'
p9352
aS'JJD'
p9353
aa(lp9354
S'JJDCJD'
p9355
aS'JJDCJD'
p9356
aa(lp9357
S'JJDD'
p9358
aS'JJDD'
p9359
aa(lp9360
S'JJGCCD'
p9361
aS'JJGCCD'
p9362
aa(lp9363
S'JJGD'
p9364
aS'JJGD'
p9365
aa(lp9366
S'JJICD'
p9367
aS'JJICD'
p9368
aa(lp9369
S'JJID'
p9370
aS'JJID'
p9371
aa(lp9372
S'JJJCCCD'
p9373
aS'JJJCCCD'
p9374
aa(lp9375
S'JJJCD'
p9376
aS'JJJCD'
p9377
aa(lp9378
S'JJJCFCCCD'
p9379
aS'JJJCFCCCD'
p9380
aa(lp9381
S'JJJD'
p9382
aS'JJJD'
p9383
aa(lp9384
S'JJJGD'
p9385
aS'JJJGD'
p9386
aa(lp9387
S'JJLWGWCD'
p9388
aS'JJLWGWCD'
p9389
aa(lp9390
S'JJMCID'
p9391
aS'JJMCID'
p9392
aa(lp9393
S'JJPCD'
p9394
aS'JJPCD'
p9395
aa(lp9396
S'JJPD'
p9397
aS'JJPD'
p9398
aa(lp9399
S'JJPJJD'
p9400
aS'JJPJJD'
p9401
aa(lp9402
S'JJPPCD'
p9403
aS'JJPPCD'
p9404
aa(lp9405
S'JJPPJLCD'
p9406
aS'JJPPJLCD'
p9407
aa(lp9408
S'JJWFWCCJJD'
p9409
aS'JJWFWCCJJD'
p9410
aa(lp9411
S'JJWGWCD'
p9412
aS'JJWGWCD'
p9413
aa(lp9414
S'JJWGWCDD'
p9415
aS'JJWGWCDD'
p9416
aa(lp9417
S'JKCD'
p9418
aS'JKCD'
p9419
aa(lp9420
S'JKD'
p9421
aS'JKD'
p9422
aa(lp9423
S'JLCCD'
p9424
aS'JLCCD'
p9425
aa(lp9426
S'JLCCDD'
p9427
aS'JLCCDD'
p9428
aa(lp9429
S'JLCCJD'
p9430
aS'JLCCJD'
p9431
aa(lp9432
S'JLCD'
p9433
aS'JLCD'
p9434
aa(lp9435
S'JLCDD'
p9436
aS'JLCDD'
p9437
aa(lp9438
S'JLCMD'
p9439
aS'JLCMD'
p9440
aa(lp9441
S'JLCMDD'
p9442
aS'JLCMDD'
p9443
aa(lp9444
S'JLD'
p9445
aS'JLD'
p9446
aa(lp9447
S'JLDD'
p9448
aS'JLDD'
p9449
aa(lp9450
S'JLGCJD'
p9451
aS'JLGCJD'
p9452
aa(lp9453
S'JLGJCCCJD'
p9454
aS'JLGJCCCJD'
p9455
aa(lp9456
S'JLJD'
p9457
aS'JLJD'
p9458
aa(lp9459
S'JMCD'
p9460
aS'JMCD'
p9461
aa(lp9462
S'JMD'
p9463
aS'JMD'
p9464
aa(lp9465
S'JMJD'
p9466
aS'JMJD'
p9467
aa(lp9468
S'JMPD'
p9469
aS'JMPD'
p9470
aa(lp9471
S'JPCCCCWGWD'
p9472
aS'JPCCCCWGWD'
p9473
aa(lp9474
S'JPCCCD'
p9475
aS'JPCCCD'
p9476
aa(lp9477
S'JPCCD'
p9478
aS'JPCCD'
p9479
aa(lp9480
S'JPCD'
p9481
aS'JPCD'
p9482
aa(lp9483
S'JPCMD'
p9484
aS'JPCMD'
p9485
aa(lp9486
S'JPCMDPD'
p9487
aS'JPCMDPD'
p9488
aa(lp9489
S'JPD'
p9490
aS'JPD'
p9491
aa(lp9492
S'JPDCCCD'
p9493
aS'JPDCCCD'
p9494
aa(lp9495
S'JPDD'
p9496
aS'JPDD'
p9497
aa(lp9498
S'JPDGCD'
p9499
aS'JPDGCD'
p9500
aa(lp9501
S'JPFCCD'
p9502
aS'JPFCCD'
p9503
aa(lp9504
S'JPFD'
p9505
aS'JPFD'
p9506
aa(lp9507
S'JPICD'
p9508
aS'JPICD'
p9509
aa(lp9510
S'JPID'
p9511
aS'JPID'
p9512
aa(lp9513
S'JPIID'
p9514
aS'JPIID'
p9515
aa(lp9516
S'JPIWGWID'
p9517
aS'JPIWGWID'
p9518
aa(lp9519
S'JPJD'
p9520
aS'JPJD'
p9521
aa(lp9522
S'JPJJCCCFPCD'
p9523
aS'JPJJCCCFPCD'
p9524
aa(lp9525
S'JPJJD'
p9526
aS'JPJJD'
p9527
aa(lp9528
S'JPMD'
p9529
aS'JPMD'
p9530
aa(lp9531
S'JPMDCCD'
p9532
aS'JPMDCCD'
p9533
aa(lp9534
S'JPMDD'
p9535
aS'JPMDD'
p9536
aa(lp9537
S'JPPJD'
p9538
aS'JPPJD'
p9539
aa(lp9540
S'JPPJLCD'
p9541
aS'JPPJLCD'
p9542
aa(lp9543
S'JPWWD'
p9544
aS'JPWWD'
p9545
aa(lp9546
S'JWWFWCD'
p9547
aS'JWWFWCD'
p9548
aa(lp9549
S'KCCCCCD'
p9550
aS'KCCCCCD'
p9551
aa(lp9552
S'KCCCCD'
p9553
aS'KCCCCD'
p9554
aa(lp9555
S'KCCCCDCD'
p9556
aS'KCCCCDCD'
p9557
aa(lp9558
S'KCCCCDD'
p9559
aS'KCCCCDD'
p9560
aa(lp9561
S'KCCCD'
p9562
aS'KCCCD'
p9563
aa(lp9564
S'KCCCDCD'
p9565
aS'KCCCDCD'
p9566
aa(lp9567
S'KCCCDD'
p9568
aS'KCCCDD'
p9569
aa(lp9570
S'KCCCDDCCCD'
p9571
aS'KCCCDDCCCD'
p9572
aa(lp9573
S'KCCCGD'
p9574
aS'KCCCGD'
p9575
aa(lp9576
S'KCCD'
p9577
aS'KCCD'
p9578
aa(lp9579
S'KCCDCCD'
p9580
aS'KCCDCCD'
p9581
aa(lp9582
S'KCCDCD'
p9583
aS'KCCDCD'
p9584
aa(lp9585
S'KCCDGD'
p9586
aS'KCCDGD'
p9587
aa(lp9588
S'KCCJD'
p9589
aS'KCCJD'
p9590
aa(lp9591
S'KCCJDID'
p9592
aS'KCCJDID'
p9593
aa(lp9594
S'KCCPD'
p9595
aS'KCCPD'
p9596
aa(lp9597
S'KCD'
p9598
aS'KCD'
p9599
aa(lp9600
S'KCDCCCCD'
p9601
aS'KCDCCCCD'
p9602
aa(lp9603
S'KCDCCD'
p9604
aS'KCDCCD'
p9605
aa(lp9606
S'KCDCD'
p9607
aS'KCDCD'
p9608
aa(lp9609
S'KCDD'
p9610
aS'KCDD'
p9611
aa(lp9612
S'KCDGCD'
p9613
aS'KCDGCD'
p9614
aa(lp9615
S'KCDGD'
p9616
aS'KCDGD'
p9617
aa(lp9618
S'KCDICD'
p9619
aS'KCDICD'
p9620
aa(lp9621
S'KCDJD'
p9622
aS'KCDJD'
p9623
aa(lp9624
S'KCFCD'
p9625
aS'KCFCD'
p9626
aa(lp9627
S'KCGCCCD'
p9628
aS'KCGCCCD'
p9629
aa(lp9630
S'KCGCCCDD'
p9631
aS'KCGCCCDD'
p9632
aa(lp9633
S'KCGCCD'
p9634
aS'KCGCCD'
p9635
aa(lp9636
S'KCGCD'
p9637
aS'KCGCD'
p9638
aa(lp9639
S'KCGD'
p9640
aS'KCGD'
p9641
aa(lp9642
S'KCGGGD'
p9643
aS'KCGGGD'
p9644
aa(lp9645
S'KCICCD'
p9646
aS'KCICCD'
p9647
aa(lp9648
S'KCICD'
p9649
aS'KCICD'
p9650
aa(lp9651
S'KCID'
p9652
aS'KCID'
p9653
aa(lp9654
S'KCIDCD'
p9655
aS'KCIDCD'
p9656
aa(lp9657
S'KCJCCCDGD'
p9658
aS'KCJCCCDGD'
p9659
aa(lp9660
S'KCJCD'
p9661
aS'KCJCD'
p9662
aa(lp9663
S'KCJD'
p9664
aS'KCJD'
p9665
aa(lp9666
S'KCKCD'
p9667
aS'KCKCD'
p9668
aa(lp9669
S'KCMD'
p9670
aS'KCMD'
p9671
aa(lp9672
S'KCMDCD'
p9673
aS'KCMDCD'
p9674
aa(lp9675
S'KCPD'
p9676
aS'KCPD'
p9677
aa(lp9678
S'KCWGWD'
p9679
aS'KCWGWD'
p9680
aa(lp9681
S'KD'
p9682
aS'KD'
p9683
aa(lp9684
S'KDCCCD'
p9685
aS'KDCCCD'
p9686
aa(lp9687
S'KDCD'
p9688
aS'KDCD'
p9689
aa(lp9690
S'KDD'
p9691
aS'KDD'
p9692
aa(lp9693
S'KDICD'
p9694
aS'KDICD'
p9695
aa(lp9696
S'KDLCCPD'
p9697
aS'KDLCCPD'
p9698
aa(lp9699
S'KFCCD'
p9700
aS'KFCCD'
p9701
aa(lp9702
S'KFCD'
p9703
aS'KFCD'
p9704
aa(lp9705
S'KFCDD'
p9706
aS'KFCDD'
p9707
aa(lp9708
S'KFD'
p9709
aS'KFD'
p9710
aa(lp9711
S'KFWFD'
p9712
aS'KFWFD'
p9713
aa(lp9714
S'KGCCCD'
p9715
aS'KGCCCD'
p9716
aa(lp9717
S'KGCCD'
p9718
aS'KGCCD'
p9719
aa(lp9720
S'KGCD'
p9721
aS'KGCD'
p9722
aa(lp9723
S'KGCDCCCD'
p9724
aS'KGCDCCCD'
p9725
aa(lp9726
S'KGCDCCD'
p9727
aS'KGCDCCD'
p9728
aa(lp9729
S'KGCDD'
p9730
aS'KGCDD'
p9731
aa(lp9732
S'KGCDGD'
p9733
aS'KGCDGD'
p9734
aa(lp9735
S'KGCGCD'
p9736
aS'KGCGCD'
p9737
aa(lp9738
S'KGDD'
p9739
aS'KGDD'
p9740
aa(lp9741
S'KGGCDID'
p9742
aS'KGGCDID'
p9743
aa(lp9744
S'KGGD'
p9745
aS'KGGD'
p9746
aa(lp9747
S'KGJPD'
p9748
aS'KGJPD'
p9749
aa(lp9750
S'KICCD'
p9751
aS'KICCD'
p9752
aa(lp9753
S'KICD'
p9754
aS'KICD'
p9755
aa(lp9756
S'KICDD'
p9757
aS'KICDD'
p9758
aa(lp9759
S'KID'
p9760
aS'KID'
p9761
aa(lp9762
S'KIDCCD'
p9763
aS'KIDCCD'
p9764
aa(lp9765
S'KIDJCCD'
p9766
aS'KIDJCCD'
p9767
aa(lp9768
S'KIDJCD'
p9769
aS'KIDJCD'
p9770
aa(lp9771
S'KIGID'
p9772
aS'KIGID'
p9773
aa(lp9774
S'KIICD'
p9775
aS'KIICD'
p9776
aa(lp9777
S'KIMCD'
p9778
aS'KIMCD'
p9779
aa(lp9780
S'KIMD'
p9781
aS'KIMD'
p9782
aa(lp9783
S'KIWGWD'
p9784
aS'KIWGWD'
p9785
aa(lp9786
S'KJCCD'
p9787
aS'KJCCD'
p9788
aa(lp9789
S'KJCD'
p9790
aS'KJCD'
p9791
aa(lp9792
S'KJD'
p9793
aS'KJD'
p9794
aa(lp9795
S'KJDD'
p9796
aS'KJDD'
p9797
aa(lp9798
S'KJGCD'
p9799
aS'KJGCD'
p9800
aa(lp9801
S'KJICCD'
p9802
aS'KJICCD'
p9803
aa(lp9804
S'KJJD'
p9805
aS'KJJD'
p9806
aa(lp9807
S'KJJDCD'
p9808
aS'KJJDCD'
p9809
aa(lp9810
S'KJJJD'
p9811
aS'KJJJD'
p9812
aa(lp9813
S'KJPD'
p9814
aS'KJPD'
p9815
aa(lp9816
S'KLCCD'
p9817
aS'KLCCD'
p9818
aa(lp9819
S'KLD'
p9820
aS'KLD'
p9821
aa(lp9822
S'KLPCCD'
p9823
aS'KLPCCD'
p9824
aa(lp9825
S'KMCCJCCD'
p9826
aS'KMCCJCCD'
p9827
aa(lp9828
S'KMCD'
p9829
aS'KMCD'
p9830
aa(lp9831
S'KMCDD'
p9832
aS'KMCDD'
p9833
aa(lp9834
S'KMD'
p9835
aS'KMD'
p9836
aa(lp9837
S'KMDCD'
p9838
aS'KMDCD'
p9839
aa(lp9840
S'KMDD'
p9841
aS'KMDD'
p9842
aa(lp9843
S'KMMD'
p9844
aS'KMMD'
p9845
aa(lp9846
S'KMMMD'
p9847
aS'KMMMD'
p9848
aa(lp9849
S'KPCCCD'
p9850
aS'KPCCCD'
p9851
aa(lp9852
S'KPCCD'
p9853
aS'KPCCD'
p9854
aa(lp9855
S'KPCD'
p9856
aS'KPCD'
p9857
aa(lp9858
S'KPD'
p9859
aS'KPD'
p9860
aa(lp9861
S'KPDD'
p9862
aS'KPDD'
p9863
aa(lp9864
S'KPFCCD'
p9865
aS'KPFCCD'
p9866
aa(lp9867
S'KPGCD'
p9868
aS'KPGCD'
p9869
aa(lp9870
S'KPICD'
p9871
aS'KPICD'
p9872
aa(lp9873
S'KPKICD'
p9874
aS'KPKICD'
p9875
aa(lp9876
S'LCCCCD'
p9877
aS'LCCCCD'
p9878
aa(lp9879
S'LCCCD'
p9880
aS'LCCCD'
p9881
aa(lp9882
S'LCCCDGCD'
p9883
aS'LCCCDGCD'
p9884
aa(lp9885
S'LCCD'
p9886
aS'LCCD'
p9887
aa(lp9888
S'LCCDD'
p9889
aS'LCCDD'
p9890
aa(lp9891
S'LCCDJCCD'
p9892
aS'LCCDJCCD'
p9893
aa(lp9894
S'LCCGD'
p9895
aS'LCCGD'
p9896
aa(lp9897
S'LCCGID'
p9898
aS'LCCGID'
p9899
aa(lp9900
S'LCCID'
p9901
aS'LCCID'
p9902
aa(lp9903
S'LCCPCD'
p9904
aS'LCCPCD'
p9905
aa(lp9906
S'LCCWGWD'
p9907
aS'LCCWGWD'
p9908
aa(lp9909
S'LCD'
p9910
aS'LCD'
p9911
aa(lp9912
S'LCDCCD'
p9913
aS'LCDCCD'
p9914
aa(lp9915
S'LCDCD'
p9916
aS'LCDCD'
p9917
aa(lp9918
S'LCDCDD'
p9919
aS'LCDCDD'
p9920
aa(lp9921
S'LCDCDIGCD'
p9922
aS'LCDCDIGCD'
p9923
aa(lp9924
S'LCDD'
p9925
aS'LCDD'
p9926
aa(lp9927
S'LCDFD'
p9928
aS'LCDFD'
p9929
aa(lp9930
S'LCDGDD'
p9931
aS'LCDGDD'
p9932
aa(lp9933
S'LCDGID'
p9934
aS'LCDGID'
p9935
aa(lp9936
S'LCDID'
p9937
aS'LCDID'
p9938
aa(lp9939
S'LCDLD'
p9940
aS'LCDLD'
p9941
aa(lp9942
S'LCDLDCD'
p9943
aS'LCDLDCD'
p9944
aa(lp9945
S'LCDLDD'
p9946
aS'LCDLDD'
p9947
aa(lp9948
S'LCDMCDD'
p9949
aS'LCDMCDD'
p9950
aa(lp9951
S'LCDPD'
p9952
aS'LCDPD'
p9953
aa(lp9954
S'LCGD'
p9955
aS'LCGD'
p9956
aa(lp9957
S'LCGDD'
p9958
aS'LCGDD'
p9959
aa(lp9960
S'LCGFCD'
p9961
aS'LCGFCD'
p9962
aa(lp9963
S'LCICCWGWD'
p9964
aS'LCICCWGWD'
p9965
aa(lp9966
S'LCID'
p9967
aS'LCID'
p9968
aa(lp9969
S'LCIGD'
p9970
aS'LCIGD'
p9971
aa(lp9972
S'LCJCD'
p9973
aS'LCJCD'
p9974
aa(lp9975
S'LCJD'
p9976
aS'LCJD'
p9977
aa(lp9978
S'LCLD'
p9979
aS'LCLD'
p9980
aa(lp9981
S'LCMCCD'
p9982
aS'LCMCCD'
p9983
aa(lp9984
S'LCMCDD'
p9985
aS'LCMCDD'
p9986
aa(lp9987
S'LCMCID'
p9988
aS'LCMCID'
p9989
aa(lp9990
S'LCMCMD'
p9991
aS'LCMCMD'
p9992
aa(lp9993
S'LCMD'
p9994
aS'LCMD'
p9995
aa(lp9996
S'LCMJCICD'
p9997
aS'LCMJCICD'
p9998
aa(lp9999
S'LCMJD'
p10000
aS'LCMJD'
p10001
aa(lp10002
S'LCPCJCD'
p10003
aS'LCPCJCD'
p10004
aa(lp10005
S'LCPD'
p10006
aS'LCPD'
p10007
aa(lp10008
S'LCPMD'
p10009
aS'LCPMD'
p10010
aa(lp10011
S'LCPPCD'
p10012
aS'LCPPCD'
p10013
aa(lp10014
S'LCWGWCFDD'
p10015
aS'LCWGWCFDD'
p10016
aa(lp10017
S'LCWGWICD'
p10018
aS'LCWGWICD'
p10019
aa(lp10020
S'LD'
p10021
aS'LD'
p10022
aa(lp10023
S'LDCCD'
p10024
aS'LDCCD'
p10025
aa(lp10026
S'LDCD'
p10027
aS'LDCD'
p10028
aa(lp10029
S'LDCLCD'
p10030
aS'LDCLCD'
p10031
aa(lp10032
S'LDCLCDCD'
p10033
aS'LDCLCDCD'
p10034
aa(lp10035
S'LDCPD'
p10036
aS'LDCPD'
p10037
aa(lp10038
S'LDD'
p10039
aS'LDD'
p10040
aa(lp10041
S'LDDD'
p10042
aS'LDDD'
p10043
aa(lp10044
S'LDLCCCCD'
p10045
aS'LDLCCCCD'
p10046
aa(lp10047
S'LFCCD'
p10048
aS'LFCCD'
p10049
aa(lp10050
S'LFCD'
p10051
aS'LFCD'
p10052
aa(lp10053
S'LFCFD'
p10054
aS'LFCFD'
p10055
aa(lp10056
S'LFCWGWCD'
p10057
aS'LFCWGWCD'
p10058
aa(lp10059
S'LFD'
p10060
aS'LFD'
p10061
aa(lp10062
S'LFJD'
p10063
aS'LFJD'
p10064
aa(lp10065
S'LFPPPCCD'
p10066
aS'LFPPPCCD'
p10067
aa(lp10068
S'LGCCCD'
p10069
aS'LGCCCD'
p10070
aa(lp10071
S'LGCCD'
p10072
aS'LGCCD'
p10073
aa(lp10074
S'LGCD'
p10075
aS'LGCD'
p10076
aa(lp10077
S'LGCICD'
p10078
aS'LGCICD'
p10079
aa(lp10080
S'LGCPJCD'
p10081
aS'LGCPJCD'
p10082
aa(lp10083
S'LGD'
p10084
aS'LGD'
p10085
aa(lp10086
S'LGFCCD'
p10087
aS'LGFCCD'
p10088
aa(lp10089
S'LGFCD'
p10090
aS'LGFCD'
p10091
aa(lp10092
S'LGFD'
p10093
aS'LGFD'
p10094
aa(lp10095
S'LGFICD'
p10096
aS'LGFICD'
p10097
aa(lp10098
S'LGFID'
p10099
aS'LGFID'
p10100
aa(lp10101
S'LGFJD'
p10102
aS'LGFJD'
p10103
aa(lp10104
S'LGFPD'
p10105
aS'LGFPD'
p10106
aa(lp10107
S'LGGCCCD'
p10108
aS'LGGCCCD'
p10109
aa(lp10110
S'LGGCD'
p10111
aS'LGGCD'
p10112
aa(lp10113
S'LGICCDGCD'
p10114
aS'LGICCDGCD'
p10115
aa(lp10116
S'LGICD'
p10117
aS'LGICD'
p10118
aa(lp10119
S'LGID'
p10120
aS'LGID'
p10121
aa(lp10122
S'LGIICD'
p10123
aS'LGIICD'
p10124
aa(lp10125
S'LGJCCD'
p10126
aS'LGJCCD'
p10127
aa(lp10128
S'LGJCD'
p10129
aS'LGJCD'
p10130
aa(lp10131
S'LGJCID'
p10132
aS'LGJCID'
p10133
aa(lp10134
S'LGJLCD'
p10135
aS'LGJLCD'
p10136
aa(lp10137
S'LGJLD'
p10138
aS'LGJLD'
p10139
aa(lp10140
S'LGLIDD'
p10141
aS'LGLIDD'
p10142
aa(lp10143
S'LGPCCD'
p10144
aS'LGPCCD'
p10145
aa(lp10146
S'LGPCD'
p10147
aS'LGPCD'
p10148
aa(lp10149
S'LGPDDWD'
p10150
aS'LGPDDWD'
p10151
aa(lp10152
S'LGPJPD'
p10153
aS'LGPJPD'
p10154
aa(lp10155
S'LICCCD'
p10156
aS'LICCCD'
p10157
aa(lp10158
S'LICCD'
p10159
aS'LICCD'
p10160
aa(lp10161
S'LICD'
p10162
aS'LICD'
p10163
aa(lp10164
S'LICLD'
p10165
aS'LICLD'
p10166
aa(lp10167
S'LID'
p10168
aS'LID'
p10169
aa(lp10170
S'LIGD'
p10171
aS'LIGD'
p10172
aa(lp10173
S'LIJD'
p10174
aS'LIJD'
p10175
aa(lp10176
S'LIPCCCD'
p10177
aS'LIPCCCD'
p10178
aa(lp10179
S'LIWGWCCCD'
p10180
aS'LIWGWCCCD'
p10181
aa(lp10182
S'LIWGWD'
p10183
aS'LIWGWD'
p10184
aa(lp10185
S'LJCCCCD'
p10186
aS'LJCCCCD'
p10187
aa(lp10188
S'LJCCCCWGWD'
p10189
aS'LJCCCCWGWD'
p10190
aa(lp10191
S'LJCCCD'
p10192
aS'LJCCCD'
p10193
aa(lp10194
S'LJCCD'
p10195
aS'LJCCD'
p10196
aa(lp10197
S'LJCCDCCCD'
p10198
aS'LJCCDCCCD'
p10199
aa(lp10200
S'LJCCDCCD'
p10201
aS'LJCCDCCD'
p10202
aa(lp10203
S'LJCCDCD'
p10204
aS'LJCCDCD'
p10205
aa(lp10206
S'LJCCDID'
p10207
aS'LJCCDID'
p10208
aa(lp10209
S'LJCCDJCD'
p10210
aS'LJCCDJCD'
p10211
aa(lp10212
S'LJCD'
p10213
aS'LJCD'
p10214
aa(lp10215
S'LJCDD'
p10216
aS'LJCDD'
p10217
aa(lp10218
S'LJCGD'
p10219
aS'LJCGD'
p10220
aa(lp10221
S'LJCJJD'
p10222
aS'LJCJJD'
p10223
aa(lp10224
S'LJCWCWJWCWJD'
p10225
aS'LJCWCWJWCWJD'
p10226
aa(lp10227
S'LJD'
p10228
aS'LJD'
p10229
aa(lp10230
S'LJDCCD'
p10231
aS'LJDCCD'
p10232
aa(lp10233
S'LJDCD'
p10234
aS'LJDCD'
p10235
aa(lp10236
S'LJDD'
p10237
aS'LJDD'
p10238
aa(lp10239
S'LJDJPD'
p10240
aS'LJDJPD'
p10241
aa(lp10242
S'LJDJPDD'
p10243
aS'LJDJPDD'
p10244
aa(lp10245
S'LJDJPDID'
p10246
aS'LJDJPDID'
p10247
aa(lp10248
S'LJDJPMDD'
p10249
aS'LJDJPMDD'
p10250
aa(lp10251
S'LJFCCD'
p10252
aS'LJFCCD'
p10253
aa(lp10254
S'LJFGCD'
p10255
aS'LJFGCD'
p10256
aa(lp10257
S'LJFJJCLCD'
p10258
aS'LJFJJCLCD'
p10259
aa(lp10260
S'LJGD'
p10261
aS'LJGD'
p10262
aa(lp10263
S'LJID'
p10264
aS'LJID'
p10265
aa(lp10266
S'LJJCD'
p10267
aS'LJJCD'
p10268
aa(lp10269
S'LJJD'
p10270
aS'LJJD'
p10271
aa(lp10272
S'LJLD'
p10273
aS'LJLD'
p10274
aa(lp10275
S'LJMD'
p10276
aS'LJMD'
p10277
aa(lp10278
S'LJPCD'
p10279
aS'LJPCD'
p10280
aa(lp10281
S'LKCD'
p10282
aS'LKCD'
p10283
aa(lp10284
S'LKGPD'
p10285
aS'LKGPD'
p10286
aa(lp10287
S'LKPJCCD'
p10288
aS'LKPJCCD'
p10289
aa(lp10290
S'LLCD'
p10291
aS'LLCD'
p10292
aa(lp10293
S'LLD'
p10294
aS'LLD'
p10295
aa(lp10296
S'LLPD'
p10297
aS'LLPD'
p10298
aa(lp10299
S'LMCCFCCD'
p10300
aS'LMCCFCCD'
p10301
aa(lp10302
S'LMCD'
p10303
aS'LMCD'
p10304
aa(lp10305
S'LMD'
p10306
aS'LMD'
p10307
aa(lp10308
S'LMID'
p10309
aS'LMID'
p10310
aa(lp10311
S'LMPJIPCCD'
p10312
aS'LMPJIPCCD'
p10313
aa(lp10314
S'LPCCCCCD'
p10315
aS'LPCCCCCD'
p10316
aa(lp10317
S'LPCCCD'
p10318
aS'LPCCCD'
p10319
aa(lp10320
S'LPCCD'
p10321
aS'LPCCD'
p10322
aa(lp10323
S'LPCD'
p10324
aS'LPCD'
p10325
aa(lp10326
S'LPCDD'
p10327
aS'LPCDD'
p10328
aa(lp10329
S'LPCFPPD'
p10330
aS'LPCFPPD'
p10331
aa(lp10332
S'LPCGCCCD'
p10333
aS'LPCGCCCD'
p10334
aa(lp10335
S'LPCGCCD'
p10336
aS'LPCGCCD'
p10337
aa(lp10338
S'LPCGCCDCCD'
p10339
aS'LPCGCCDCCD'
p10340
aa(lp10341
S'LPCGD'
p10342
aS'LPCGD'
p10343
aa(lp10344
S'LPCGDDPD'
p10345
aS'LPCGDDPD'
p10346
aa(lp10347
S'LPCGDGD'
p10348
aS'LPCGDGD'
p10349
aa(lp10350
S'LPD'
p10351
aS'LPD'
p10352
aa(lp10353
S'LPDD'
p10354
aS'LPDD'
p10355
aa(lp10356
S'LPDDD'
p10357
aS'LPDDD'
p10358
aa(lp10359
S'LPICD'
p10360
aS'LPICD'
p10361
aa(lp10362
S'LPID'
p10363
aS'LPID'
p10364
aa(lp10365
S'LPJD'
p10366
aS'LPJD'
p10367
aa(lp10368
S'LPMDCCD'
p10369
aS'LPMDCCD'
p10370
aa(lp10371
S'LPPJD'
p10372
aS'LPPJD'
p10373
aa(lp10374
S'LPPWCCD'
p10375
aS'LPPWCCD'
p10376
aa(lp10377
S'MCCCD'
p10378
aS'MCCCD'
p10379
aa(lp10380
S'MCCD'
p10381
aS'MCCD'
p10382
aa(lp10383
S'MCCID'
p10384
aS'MCCID'
p10385
aa(lp10386
S'MCCPD'
p10387
aS'MCCPD'
p10388
aa(lp10389
S'MCCWGWD'
p10390
aS'MCCWGWD'
p10391
aa(lp10392
S'MCD'
p10393
aS'MCD'
p10394
aa(lp10395
S'MCDCCD'
p10396
aS'MCDCCD'
p10397
aa(lp10398
S'MCDCCDCD'
p10399
aS'MCDCCDCD'
p10400
aa(lp10401
S'MCDCCDD'
p10402
aS'MCDCCDD'
p10403
aa(lp10404
S'MCDCD'
p10405
aS'MCDCD'
p10406
aa(lp10407
S'MCDCGD'
p10408
aS'MCDCGD'
p10409
aa(lp10410
S'MCDD'
p10411
aS'MCDD'
p10412
aa(lp10413
S'MCDFD'
p10414
aS'MCDFD'
p10415
aa(lp10416
S'MCDFDD'
p10417
aS'MCDFDD'
p10418
aa(lp10419
S'MCDLCD'
p10420
aS'MCDLCD'
p10421
aa(lp10422
S'MCDPPD'
p10423
aS'MCDPPD'
p10424
aa(lp10425
S'MCGCD'
p10426
aS'MCGCD'
p10427
aa(lp10428
S'MCICD'
p10429
aS'MCICD'
p10430
aa(lp10431
S'MCID'
p10432
aS'MCID'
p10433
aa(lp10434
S'MCIDWGWD'
p10435
aS'MCIDWGWD'
p10436
aa(lp10437
S'MCJCCD'
p10438
aS'MCJCCD'
p10439
aa(lp10440
S'MCJD'
p10441
aS'MCJD'
p10442
aa(lp10443
S'MCLD'
p10444
aS'MCLD'
p10445
aa(lp10446
S'MCPD'
p10447
aS'MCPD'
p10448
aa(lp10449
S'MCWD'
p10450
aS'MCWD'
p10451
aa(lp10452
S'MD'
p10453
aS'MD'
p10454
aa(lp10455
S'MDD'
p10456
aS'MDD'
p10457
aa(lp10458
S'MFD'
p10459
aS'MFD'
p10460
aa(lp10461
S'MGD'
p10462
aS'MGD'
p10463
aa(lp10464
S'MGJD'
p10465
aS'MGJD'
p10466
aa(lp10467
S'MGJJD'
p10468
aS'MGJJD'
p10469
aa(lp10470
S'MICCD'
p10471
aS'MICCD'
p10472
aa(lp10473
S'MICD'
p10474
aS'MICD'
p10475
aa(lp10476
S'MID'
p10477
aS'MID'
p10478
aa(lp10479
S'MIDCCD'
p10480
aS'MIDCCD'
p10481
aa(lp10482
S'MJCCD'
p10483
aS'MJCCD'
p10484
aa(lp10485
S'MJCD'
p10486
aS'MJCD'
p10487
aa(lp10488
S'MJCWGWD'
p10489
aS'MJCWGWD'
p10490
aa(lp10491
S'MJD'
p10492
aS'MJD'
p10493
aa(lp10494
S'MJDD'
p10495
aS'MJDD'
p10496
aa(lp10497
S'MLCD'
p10498
aS'MLCD'
p10499
aa(lp10500
S'MLD'
p10501
aS'MLD'
p10502
aa(lp10503
S'MLGD'
p10504
aS'MLGD'
p10505
aa(lp10506
S'MLGGD'
p10507
aS'MLGGD'
p10508
aa(lp10509
S'MMCCD'
p10510
aS'MMCCD'
p10511
aa(lp10512
S'MMCD'
p10513
aS'MMCD'
p10514
aa(lp10515
S'MMD'
p10516
aS'MMD'
p10517
aa(lp10518
S'MMMD'
p10519
aS'MMMD'
p10520
aa(lp10521
S'MMPD'
p10522
aS'MMPD'
p10523
aa(lp10524
S'MPCCD'
p10525
aS'MPCCD'
p10526
aa(lp10527
S'MPCD'
p10528
aS'MPCD'
p10529
aa(lp10530
S'MPCFCD'
p10531
aS'MPCFCD'
p10532
aa(lp10533
S'MPCGD'
p10534
aS'MPCGD'
p10535
aa(lp10536
S'MPD'
p10537
aS'MPD'
p10538
aa(lp10539
S'MPDCD'
p10540
aS'MPDCD'
p10541
aa(lp10542
S'MPJPD'
p10543
aS'MPJPD'
p10544
aa(lp10545
S'MPPD'
p10546
aS'MPPD'
p10547
aa(lp10548
S'PCCCCCCD'
p10549
aS'PCCCCCCD'
p10550
aa(lp10551
S'PCCCCCD'
p10552
aS'PCCCCCD'
p10553
aa(lp10554
S'PCCCCD'
p10555
aS'PCCCCD'
p10556
aa(lp10557
S'PCCCD'
p10558
aS'PCCCD'
p10559
aa(lp10560
S'PCCCDD'
p10561
aS'PCCCDD'
p10562
aa(lp10563
S'PCCD'
p10564
aS'PCCD'
p10565
aa(lp10566
S'PCCDD'
p10567
aS'PCCDD'
p10568
aa(lp10569
S'PCCGGCCCCD'
p10570
aS'PCCGGCCCCD'
p10571
aa(lp10572
S'PCCGJGD'
p10573
aS'PCCGJGD'
p10574
aa(lp10575
S'PCCID'
p10576
aS'PCCID'
p10577
aa(lp10578
S'PCCIDD'
p10579
aS'PCCIDD'
p10580
aa(lp10581
S'PCCKD'
p10582
aS'PCCKD'
p10583
aa(lp10584
S'PCD'
p10585
aS'PCD'
p10586
aa(lp10587
S'PCDCD'
p10588
aS'PCDCD'
p10589
aa(lp10590
S'PCDCJCD'
p10591
aS'PCDCJCD'
p10592
aa(lp10593
S'PCDD'
p10594
aS'PCDD'
p10595
aa(lp10596
S'PCDDDCCD'
p10597
aS'PCDDDCCD'
p10598
aa(lp10599
S'PCDFCCCD'
p10600
aS'PCDFCCCD'
p10601
aa(lp10602
S'PCDID'
p10603
aS'PCDID'
p10604
aa(lp10605
S'PCGCCD'
p10606
aS'PCGCCD'
p10607
aa(lp10608
S'PCGCD'
p10609
aS'PCGCD'
p10610
aa(lp10611
S'PCGD'
p10612
aS'PCGD'
p10613
aa(lp10614
S'PCID'
p10615
aS'PCID'
p10616
aa(lp10617
S'PCJCD'
p10618
aS'PCJCD'
p10619
aa(lp10620
S'PCJD'
p10621
aS'PCJD'
p10622
aa(lp10623
S'PCJGD'
p10624
aS'PCJGD'
p10625
aa(lp10626
S'PCJJDD'
p10627
aS'PCJJDD'
p10628
aa(lp10629
S'PCLGCCD'
p10630
aS'PCLGCCD'
p10631
aa(lp10632
S'PCPCCD'
p10633
aS'PCPCCD'
p10634
aa(lp10635
S'PCPD'
p10636
aS'PCPD'
p10637
aa(lp10638
S'PCWGWCD'
p10639
aS'PCWGWCD'
p10640
aa(lp10641
S'PCWGWID'
p10642
aS'PCWGWID'
p10643
aa(lp10644
S'PCWGWPDWD'
p10645
aS'PCWGWPDWD'
p10646
aa(lp10647
S'PD'
p10648
aS'PD'
p10649
aa(lp10650
S'PDCCD'
p10651
aS'PDCCD'
p10652
aa(lp10653
S'PDD'
p10654
aS'PDD'
p10655
aa(lp10656
S'PDDD'
p10657
aS'PDDD'
p10658
aa(lp10659
S'PFCCCWGWD'
p10660
aS'PFCCCWGWD'
p10661
aa(lp10662
S'PFCCD'
p10663
aS'PFCCD'
p10664
aa(lp10665
S'PFCCJICCD'
p10666
aS'PFCCJICCD'
p10667
aa(lp10668
S'PFCD'
p10669
aS'PFCD'
p10670
aa(lp10671
S'PFCDD'
p10672
aS'PFCDD'
p10673
aa(lp10674
S'PFCJCD'
p10675
aS'PFCJCD'
p10676
aa(lp10677
S'PFCPCDCD'
p10678
aS'PFCPCDCD'
p10679
aa(lp10680
S'PFCWGWCD'
p10681
aS'PFCWGWCD'
p10682
aa(lp10683
S'PFD'
p10684
aS'PFD'
p10685
aa(lp10686
S'PFFCD'
p10687
aS'PFFCD'
p10688
aa(lp10689
S'PFID'
p10690
aS'PFID'
p10691
aa(lp10692
S'PFPCD'
p10693
aS'PFPCD'
p10694
aa(lp10695
S'PFPID'
p10696
aS'PFPID'
p10697
aa(lp10698
S'PGCCD'
p10699
aS'PGCCD'
p10700
aa(lp10701
S'PGCCDGD'
p10702
aS'PGCCDGD'
p10703
aa(lp10704
S'PGCD'
p10705
aS'PGCD'
p10706
aa(lp10707
S'PGCID'
p10708
aS'PGCID'
p10709
aa(lp10710
S'PGCJCJD'
p10711
aS'PGCJCJD'
p10712
aa(lp10713
S'PGCJD'
p10714
aS'PGCJD'
p10715
aa(lp10716
S'PGD'
p10717
aS'PGD'
p10718
aa(lp10719
S'PGDCICD'
p10720
aS'PGDCICD'
p10721
aa(lp10722
S'PGFCD'
p10723
aS'PGFCD'
p10724
aa(lp10725
S'PGJCCD'
p10726
aS'PGJCCD'
p10727
aa(lp10728
S'PGJD'
p10729
aS'PGJD'
p10730
aa(lp10731
S'PGJICD'
p10732
aS'PGJICD'
p10733
aa(lp10734
S'PGPCCCJD'
p10735
aS'PGPCCCJD'
p10736
aa(lp10737
S'PGPCCD'
p10738
aS'PGPCCD'
p10739
aa(lp10740
S'PGPD'
p10741
aS'PGPD'
p10742
aa(lp10743
S'PGPID'
p10744
aS'PGPID'
p10745
aa(lp10746
S'PICCD'
p10747
aS'PICCD'
p10748
aa(lp10749
S'PICD'
p10750
aS'PICD'
p10751
aa(lp10752
S'PICDD'
p10753
aS'PICDD'
p10754
aa(lp10755
S'PID'
p10756
aS'PID'
p10757
aa(lp10758
S'PIFD'
p10759
aS'PIFD'
p10760
aa(lp10761
S'PIGFCD'
p10762
aS'PIGFCD'
p10763
aa(lp10764
S'PIJCCD'
p10765
aS'PIJCCD'
p10766
aa(lp10767
S'PIJD'
p10768
aS'PIJD'
p10769
aa(lp10770
S'PIWGWCCD'
p10771
aS'PIWGWCCD'
p10772
aa(lp10773
S'PJCCCD'
p10774
aS'PJCCCD'
p10775
aa(lp10776
S'PJCCCDD'
p10777
aS'PJCCCDD'
p10778
aa(lp10779
S'PJCCD'
p10780
aS'PJCCD'
p10781
aa(lp10782
S'PJCD'
p10783
aS'PJCD'
p10784
aa(lp10785
S'PJCDD'
p10786
aS'PJCDD'
p10787
aa(lp10788
S'PJCWGWDID'
p10789
aS'PJCWGWDID'
p10790
aa(lp10791
S'PJD'
p10792
aS'PJD'
p10793
aa(lp10794
S'PJDCD'
p10795
aS'PJDCD'
p10796
aa(lp10797
S'PJDD'
p10798
aS'PJDD'
p10799
aa(lp10800
S'PJDFFD'
p10801
aS'PJDFFD'
p10802
aa(lp10803
S'PJFD'
p10804
aS'PJFD'
p10805
aa(lp10806
S'PJGD'
p10807
aS'PJGD'
p10808
aa(lp10809
S'PJICCCPCD'
p10810
aS'PJICCCPCD'
p10811
aa(lp10812
S'PJID'
p10813
aS'PJID'
p10814
aa(lp10815
S'PJJD'
p10816
aS'PJJD'
p10817
aa(lp10818
S'PJJDD'
p10819
aS'PJJDD'
p10820
aa(lp10821
S'PJJPD'
p10822
aS'PJJPD'
p10823
aa(lp10824
S'PJLPCD'
p10825
aS'PJLPCD'
p10826
aa(lp10827
S'PJPCD'
p10828
aS'PJPCD'
p10829
aa(lp10830
S'PJPD'
p10831
aS'PJPD'
p10832
aa(lp10833
S'PLD'
p10834
aS'PLD'
p10835
aa(lp10836
S'PLDWGWCDCGD'
p10837
aS'PLDWGWCDCGD'
p10838
aa(lp10839
S'PLPCD'
p10840
aS'PLPCD'
p10841
aa(lp10842
S'PMJCD'
p10843
aS'PMJCD'
p10844
aa(lp10845
S'PPCCCDCD'
p10846
aS'PPCCCDCD'
p10847
aa(lp10848
S'PPCCCDD'
p10849
aS'PPCCCDD'
p10850
aa(lp10851
S'PPCCD'
p10852
aS'PPCCD'
p10853
aa(lp10854
S'PPCCDGD'
p10855
aS'PPCCDGD'
p10856
aa(lp10857
S'PPCCGWD'
p10858
aS'PPCCGWD'
p10859
aa(lp10860
S'PPCCWGWD'
p10861
aS'PPCCWGWD'
p10862
aa(lp10863
S'PPCD'
p10864
aS'PPCD'
p10865
aa(lp10866
S'PPCID'
p10867
aS'PPCID'
p10868
aa(lp10869
S'PPCJCCD'
p10870
aS'PPCJCCD'
p10871
aa(lp10872
S'PPCPWCCCWCDD'
p10873
aS'PPCPWCCCWCDD'
p10874
aa(lp10875
S'PPCWGWD'
p10876
aS'PPCWGWD'
p10877
aa(lp10878
S'PPD'
p10879
aS'PPD'
p10880
aa(lp10881
S'PPDCD'
p10882
aS'PPDCD'
p10883
aa(lp10884
S'PPDD'
p10885
aS'PPDD'
p10886
aa(lp10887
S'PPFCCD'
p10888
aS'PPFCCD'
p10889
aa(lp10890
S'PPFCD'
p10891
aS'PPFCD'
p10892
aa(lp10893
S'PPFWGWCD'
p10894
aS'PPFWGWCD'
p10895
aa(lp10896
S'PPGCID'
p10897
aS'PPGCID'
p10898
aa(lp10899
S'PPGD'
p10900
aS'PPGD'
p10901
aa(lp10902
S'PPGJCCD'
p10903
aS'PPGJCCD'
p10904
aa(lp10905
S'PPICCD'
p10906
aS'PPICCD'
p10907
aa(lp10908
S'PPICD'
p10909
aS'PPICD'
p10910
aa(lp10911
S'PPIDD'
p10912
aS'PPIDD'
p10913
aa(lp10914
S'PPIGD'
p10915
aS'PPIGD'
p10916
aa(lp10917
S'PPJCD'
p10918
aS'PPJCD'
p10919
aa(lp10920
S'PPJD'
p10921
aS'PPJD'
p10922
aa(lp10923
S'PPJJD'
p10924
aS'PPJJD'
p10925
aa(lp10926
S'PPLWGWCCD'
p10927
aS'PPLWGWCCD'
p10928
aa(lp10929
S'PPMD'
p10930
aS'PPMD'
p10931
aa(lp10932
S'PPPCPD'
p10933
aS'PPPCPD'
p10934
aa(lp10935
S'PPPD'
p10936
aS'PPPD'
p10937
aa(lp10938
S'PPPWGWCCD'
p10939
aS'PPPWGWCCD'
p10940
aa(lp10941
S'PPWGWCD'
p10942
aS'PPWGWCD'
p10943
aa(lp10944
S'PPWGWD'
p10945
aS'PPWGWD'
p10946
aa(lp10947
S'PWCCCD'
p10948
aS'PWCCCD'
p10949
aa(lp10950
S'PWCWCD'
p10951
aS'PWCWCD'
p10952
aa(lp10953
S'PWFWCD'
p10954
aS'PWFWCD'
p10955
aa(lp10956
S'PWWJWGWD'
p10957
aS'PWWJWGWD'
p10958
aa(lp10959
S'WCCCD'
p10960
aS'WCCCD'
p10961
aa(lp10962
S'WCJWD'
p10963
aS'WCJWD'
p10964
aa(lp10965
S'WFFPCWJD'
p10966
aS'WFFPCWJD'
p10967
aa(lp10968
S'WFPWPWCCD'
p10969
aS'WFPWPWCCD'
p10970
aa(lp10971
S'WFWD'
p10972
aS'WFWD'
p10973
aa(lp10974
S'WGCJDWFCCCD'
p10975
aS'WGCJDWFCCCD'
p10976
aa(lp10977
S'WJCCD'
p10978
aS'WJCCD'
p10979
aa(lp10980
S'WPWJD'
p10981
aS'WPWJD'
p10982
aa(lp10983
S'WWIWWCWD'
p10984
aS'WWIWWCWD'
p10985
aatRp10986
sb.